L166 LINKER/LOCATER V5.29.2.0                                                           12/14/2020  10:56:44  PAGE 1


L166 LINKER/LOCATER V5.29.2.0, INVOKED BY:
C:\KEIL_V5\C166\BIN\L166.EXE .\objs\START_V3.obj, .\objs\adc.obj, .\objs\hw.obj, .\objs\rtc.obj, .\objs\scs.obj, .\objs\
>> ssc.obj, .\objs\timer.obj, .\objs\trap.obj, .\objs\Lib_Hw_Driver_Version.obj, .\objs\xc2k_can.obj, .\objs\ccu2_ccu6.o
>> bj, .\objs\tle9180d_31qk.obj, .\objs\can_test.obj, .\objs\Lib_EOL_Diag_Version.obj, .\objs\diag_hw.obj, .\objs\dtc_ma
>> n.obj, .\objs\mcu1_imp.obj, .\objs\task_man.obj, .\objs\eeprom.obj, .\objs\Lib_DTC_Diag_Version.obj, .\objs\gpara.obj
>> , .\objs\gvar.obj, .\objs\dtc_man_mcu2.obj, .\objs\dtc_table.obj, .\objs\mcu2_imp.obj, .\objs\prot_imp.obj, .\objs\yp
>> ara.obj, .\objs\hican.obj, .\objs\_xcp_appl.obj, .\objs\xcp_par.obj, .\objs\XcpBasic.obj, .\objs\xcp_can.obj, .\objs\
>> main.obj, .\objs\ctrl.obj, .\objs\main_task.obj, .\objs\resolver_ad2s.obj, .\objs\pwm.obj, .\objs\motor_bldc.obj, .\o
>> bjs\motor_pmsm.obj, .\objs\svpwm.obj, .\objs\filters.obj, .\objs\sin_data.obj, .\objs\ctrl_if.obj, .\objs\sent_decode
>> .obj, .\objs\pid.obj, .\objs\MotorCtrlSet.obj, .\objs\MotorDrive.obj, .\objs\ebooster_ctrl.obj, .\objs\Filters_EbsSen
>> sors.obj, .\objs\aut_drv.obj TO .\objs\Mcu2K_Test PRINT (.\objs\Mcu2K_Test.m66) CLASSES (ICODE (0XC00000-0XC0EFFF), F
>> CODE (0XC00000-0XC0EFFF, 0XC10000-0XC4FFFF), FCONST (0XC00000-0XC0EFFF, 0XC10000-0XC4FFFF), HCONST (0XC00000-0XC0EFFF
>> , 0XC10000-0XC4FFFF), XCONST (0XC00000-0XC0EFFF, 0XC10000-0XC4FFFF), NCONST (0XC04000-0XC07FFF), NDATA (0XE00000-0XE0
>> 3FFF), NDATA0 (0XE00000-0XE03FFF), SDATA (0XC000-0XDFFF, 0XF600-0XFDFF), SDATA0 (0XC000-0XDFFF, 0XF600-0XFDFF), IDATA
>>  (0XF600-0XFDFF), IDATA0 (0XF600-0XFDFF), FDATA (0XA000-0XDFFF, 0XE00000-0XE03FFF), FDATA0 (0XA000-0XDFFF, 0XE00000-0
>> XE03FFF), HDATA (0XA000-0XDFFF, 0XE00000-0XE03FFF), HDATA0 (0XA000-0XDFFF, 0XE00000-0XE03FFF), XDATA (0XA000-0XDFFF, 
>> 0XE00000-0XE03FFF), XDATA0 (0XA000-0XDFFF, 0XE00000-0XE03FFF)) CINITTAB (0XC10000-0XC4FFFF)


CPU TYPE:     C167 or derivative
CPU MODE:     SEGMENTED
MEMORY MODEL: LARGE WITH FLOATING POINT ARITHMETIC


INPUT MODULES INCLUDED:
  .\objs\START_V3.obj (?C_STARTUP)
         COMMENT TYPE 128: A166 V5.38.2.0
  .\objs\adc.obj (ADC)
         COMMENT TYPE 128: C166 V7.57.0
  .\objs\hw.obj (HW)
         COMMENT TYPE 128: C166 V7.57.0
  .\objs\rtc.obj (RTC)
         COMMENT TYPE 128: C166 V7.57.0
  .\objs\scs.obj (SCS)
         COMMENT TYPE 128: C166 V7.57.0
  .\objs\ssc.obj (SSC)
         COMMENT TYPE 128: C166 V7.57.0
  .\objs\timer.obj (TIMER)
         COMMENT TYPE 128: C166 V7.57.0
  .\objs\trap.obj (TRAP)
         COMMENT TYPE 128: C166 V7.57.0
  .\objs\Lib_Hw_Driver_Version.obj (LIB_HW_DRIVER_VERSION)
         COMMENT TYPE 128: C166 V7.57.0
  .\objs\xc2k_can.obj (XC2K_CAN)
         COMMENT TYPE 128: C166 V7.57.0
  .\objs\ccu2_ccu6.obj (CCU2_CCU6)
         COMMENT TYPE 128: C166 V7.57.0
  .\objs\tle9180d_31qk.obj (TLE9180D_31QK)
         COMMENT TYPE 128: C166 V7.57.0
  .\objs\can_test.obj (CAN_TEST)
         COMMENT TYPE 128: C166 V7.57.0
  .\objs\Lib_EOL_Diag_Version.obj (LIB_EOL_DIAG_VERSION)
         COMMENT TYPE 128: C166 V7.57.0
  .\objs\diag_hw.obj (DIAG_HW)
         COMMENT TYPE 128: C166 V7.57.0
  .\objs\dtc_man.obj (DTC_MAN)
         COMMENT TYPE 128: C166 V7.57.0
  .\objs\mcu1_imp.obj (MCU1_IMP)
L166 LINKER/LOCATER V5.29.2.0                                                         12/14/2020  10:56:44  PAGE 2


         COMMENT TYPE 128: C166 V7.57.0
  .\objs\task_man.obj (TASK_MAN)
         COMMENT TYPE 128: C166 V7.57.0
  .\objs\eeprom.obj (EEPROM)
         COMMENT TYPE 128: C166 V7.57.0
  .\objs\Lib_DTC_Diag_Version.obj (LIB_DTC_DIAG_VERSION)
         COMMENT TYPE 128: C166 V7.57.0
  .\objs\gpara.obj (GPARA)
         COMMENT TYPE 128: C166 V7.57.0
  .\objs\gvar.obj (GVAR)
         COMMENT TYPE 128: C166 V7.57.0
  .\objs\dtc_man_mcu2.obj (DTC_MAN_MCU2)
         COMMENT TYPE 128: C166 V7.57.0
  .\objs\dtc_table.obj (DTC_TABLE)
         COMMENT TYPE 128: C166 V7.57.0
  .\objs\mcu2_imp.obj (MCU2_IMP)
         COMMENT TYPE 128: C166 V7.57.0
  .\objs\prot_imp.obj (PROT_IMP)
         COMMENT TYPE 128: C166 V7.57.0
  .\objs\ypara.obj (YPARA)
         COMMENT TYPE 128: C166 V7.57.0
  .\objs\hican.obj (HICAN)
         COMMENT TYPE 128: C166 V7.57.0
  .\objs\_xcp_appl.obj (_XCP_APPL)
         COMMENT TYPE 128: C166 V7.57.0
  .\objs\xcp_par.obj (XCP_PAR)
         COMMENT TYPE 128: C166 V7.57.0
  .\objs\XcpBasic.obj (XCPBASIC)
         COMMENT TYPE 128: C166 V7.57.0
  .\objs\xcp_can.obj (XCP_CAN)
         COMMENT TYPE 128: C166 V7.57.0
  .\objs\main.obj (MAIN)
         COMMENT TYPE 128: C166 V7.57.0
  .\objs\ctrl.obj (CTRL)
         COMMENT TYPE 128: C166 V7.57.0
  .\objs\main_task.obj (MAIN_TASK)
         COMMENT TYPE 128: C166 V7.57.0
  .\objs\resolver_ad2s.obj (RESOLVER_AD2S)
         COMMENT TYPE 128: C166 V7.57.0
  .\objs\pwm.obj (PWM)
         COMMENT TYPE 128: C166 V7.57.0
  .\objs\motor_bldc.obj (MOTOR_BLDC)
         COMMENT TYPE 128: C166 V7.57.0
  .\objs\motor_pmsm.obj (MOTOR_PMSM)
         COMMENT TYPE 128: C166 V7.57.0
  .\objs\svpwm.obj (SVPWM)
         COMMENT TYPE 128: C166 V7.57.0
  .\objs\filters.obj (FILTERS)
         COMMENT TYPE 128: C166 V7.57.0
  .\objs\sin_data.obj (SIN_DATA)
         COMMENT TYPE 128: C166 V7.57.0
  .\objs\ctrl_if.obj (CTRL_IF)
         COMMENT TYPE 128: C166 V7.57.0
  .\objs\sent_decode.obj (SENT_DECODE)
         COMMENT TYPE 128: C166 V7.57.0
  .\objs\pid.obj (PID)
         COMMENT TYPE 128: C166 V7.57.0
L166 LINKER/LOCATER V5.29.2.0                                                         12/14/2020  10:56:44  PAGE 3


  .\objs\MotorCtrlSet.obj (MOTORCTRLSET)
         COMMENT TYPE 128: C166 V7.57.0
  .\objs\MotorDrive.obj (MOTORDRIVE)
         COMMENT TYPE 128: C166 V7.57.0
  .\objs\ebooster_ctrl.obj (EBOOSTER_CTRL)
         COMMENT TYPE 128: C166 V7.57.0
  .\objs\Filters_EbsSensors.obj (FILTERS_EBSSENSORS)
         COMMENT TYPE 128: C166 V7.57.0
  .\objs\aut_drv.obj (AUT_DRV)
         COMMENT TYPE 128: C166 V7.57.0
  C:\KEIL_V5\C166\LIB\C167FPL.LIB (?C_FPADD)
         COMMENT TYPE 128: A166 V5.36.0.1
  C:\KEIL_V5\C166\LIB\C167FPL.LIB (?C_FPMUL)
         COMMENT TYPE 128: A166 V5.36.0.1
  C:\KEIL_V5\C166\LIB\C167FPL.LIB (?C_FPDIV)
         COMMENT TYPE 128: A166 V5.36.0.1
  C:\KEIL_V5\C166\LIB\C167FPL.LIB (?C_CASTF)
         COMMENT TYPE 128: A166 V5.36.0.1
  C:\KEIL_V5\C166\LIB\C167FPL.LIB (?C_FCAST)
         COMMENT TYPE 128: A166 V5.36.0.1
  C:\KEIL_V5\C166\LIB\C167FPL.LIB (?C_FPCMP)
         COMMENT TYPE 128: A166 V5.36.0.1
  C:\KEIL_V5\C166\LIB\C167FPL.LIB (?C_FPNEG)
         COMMENT TYPE 128: A166 V5.36.0.1
  C:\KEIL_V5\C166\LIB\C167FPL.LIB (?C_FPGETOPN)
         COMMENT TYPE 128: A166 V5.36.0.1
  C:\KEIL_V5\C166\LIB\C167FPL.LIB (?C_FPEQUATES)
         COMMENT TYPE 128: A166 V5.36.0.1
  C:\KEIL_V5\C166\LIB\C167L.LIB (?C_LMUL)
         COMMENT TYPE 128: A166 V5.36.0.1
  C:\KEIL_V5\C166\LIB\C167L.LIB (?C_ULDIV)
         COMMENT TYPE 128: A166 V5.36.0.1
  C:\KEIL_V5\C166\LIB\C167L.LIB (?C_SLDIV)
         COMMENT TYPE 128: A166 V5.36.0.1
  C:\KEIL_V5\C166\LIB\C167L.LIB (?C_BCPYNF)
         COMMENT TYPE 128: A166 V5.36.0.1
  C:\KEIL_V5\C166\LIB\C167L.LIB (MEMCPY)
         COMMENT TYPE 128: A166 V5.36.0.1
  C:\KEIL_V5\C166\LIB\C167L.LIB (FMEMCPY)
         COMMENT TYPE 128: A166 V5.36.0.1
  C:\KEIL_V5\C166\LIB\C167L.LIB (?C_ENDINIT)
         COMMENT TYPE 128: A166 V5.36.0.1


INTERRUPT PROCEDURES OF MODULE:  .\objs\Mcu2K_Test (?C_STARTUP)


INTERRUPT PROCEDURE                 INT  INTERRUPT NAME
=======================================================
?C_RESET                              0  RESET
isr_rtc                             110  ---  
isr_systick_timer                    33  ---  
NMI_trap                              2  ---  
STKOF_trap                            4  ---  
STKUF_trap                            6  ---  
Class_B_trap                         10  ---  
isr_can_txrx0                        64  ---  
L166 LINKER/LOCATER V5.29.2.0                                                         12/14/2020  10:56:44  PAGE 4


isr_can_status                       65  ---  
isr_can_error                        66  ---  
isr_cc20                             20  ---  
isr_cc21                             21  ---  
isr_cc22                             22  ---  
isr_cc23                             23  ---  
isr_cc26                             26  ---  
isr_cc27                             27  ---  
isr_main_timer                       32  ---  


MEMORY MAP OF MODULE:  .\objs\Mcu2K_Test (?C_STARTUP)


START     STOP      LENGTH    TYPE  RTYP  ALIGN  TGR  GRP  COMB  CLASS   SECTION NAME
=====================================================================================
00A000H   00A841H   000842H   DATA  REL   WORD   ---  ---  PUBL  FDATA0  ?FD0?XCPBASIC
00A842H   00A8E1H   0000A0H   DATA  REL   WORD   ---  ---  PUBL  FDATA0  ?FD0?DTC_MAN
00A8E2H   00A939H   000058H   DATA  REL   WORD   ---  ---  PUBL  FDATA0  ?FD0?CTRL
00A93AH   00A991H   000058H   DATA  REL   WORD   ---  ---  PUBL  FDATA0  ?FD0?MOTOR_PMSM
00A992H   00A9E1H   000050H   DATA  REL   WORD   ---  ---  PUBL  FDATA0  ?FD0?MCU1_IMP
00A9E2H   00AA21H   000040H   DATA  REL   WORD   ---  ---  PUBL  FDATA0  ?FD0?ADC
00AA22H   00AA5DH   00003CH   DATA  REL   WORD   ---  ---  PUBL  FDATA0  ?FD0?CCU2_CCU6
00AA5EH   00AA81H   000024H   DATA  REL   WORD   ---  ---  PUBL  FDATA0  ?FD0?TASK_MAN
00AA82H   00AA95H   000014H   DATA  REL   WORD   ---  ---  PUBL  FDATA0  ?FD0?TLE9180D_31QK
00AA96H   00AAA7H   000012H   DATA  REL   WORD   ---  ---  PUBL  FDATA0  ?FD0?PROT_IMP
00AAA8H   00AAAFH   000008H   DATA  REL   WORD   ---  ---  PUBL  FDATA0  ?FD0?CAN_TEST
00AAB0H   00AAB7H   000008H   DATA  REL   WORD   ---  ---  PUBL  FDATA0  ?FD0?_XCP_APPL
00AAB8H   00AABFH   000008H   DATA  REL   WORD   ---  ---  PUBL  FDATA0  ?FD0?AUT_DRV
00AAC0H   00AAC6H   000007H   DATA  REL   BYTE   ---  ---  PUBL  FDATA0  ?FD0?SENT_DECODE
00F600H   00F7FFH   000200H   DATA  REL   WORD   ---    2  PUBL  IDATA   ?C_SYSSTACK
00FC00H   00FC1FH   000020H   DATA  ---   BYTE   ---  ---  ---   *REG*   ?C_MAINREGISTERS
C00000H   C00003H   000004H   ---   ---   ---    ---  ---  ---   * INTVECTOR TABLE *
C00004H   C00007H   000004H   CODE  REL   WORD   ---  ---  PUBL  FCODE   ?PR?DTC_MAN_MCU2
C00008H   C0000BH   000004H   ---   ---   ---    ---  ---  ---   * INTVECTOR TABLE *
C00010H   C00013H   000004H   ---   ---   ---    ---  ---  ---   * INTVECTOR TABLE *
C00018H   C0001BH   000004H   ---   ---   ---    ---  ---  ---   * INTVECTOR TABLE *
C0001CH   C00027H   00000CH   DATA  REL   WORD   ---  ---  PUBL  FCONST  ?FC?CCU2_CCU6
C00028H   C0002BH   000004H   ---   ---   ---    ---  ---  ---   * INTVECTOR TABLE *
C0002CH   C0004BH   000020H   DATA  REL   WORD   ---  ---  PUBL  FCONST  ?FC?ADC
C00050H   C0005FH   000010H   ---   ---   ---    ---  ---  ---   * INTVECTOR TABLE *
C00060H   C00066H   000007H   DATA  REL   BYTE   ---  ---  PUBL  FCONST  ?FC?SVPWM
C00068H   C0006FH   000008H   ---   ---   ---    ---  ---  ---   * INTVECTOR TABLE *
C00070H   C00078H   000009H   DATA  REL   BYTE   ---  ---  PUBL  FCONST  ?FC?HICAN
C00080H   C00087H   000008H   ---   ---   ---    ---  ---  ---   * INTVECTOR TABLE *
C00088H   C0009FH   000018H   DATA  REL   WORD   ---  ---  PUBL  FCONST  ?FC?DTC_TABLE
C000A0H   C000B6H   000017H   DATA  REL   BYTE   ---  ---  PUBL  FCONST  ?FC?LIB_HW_DRIVER_VERSION
C000B7H   C000CDH   000017H   DATA  REL   BYTE   ---  ---  PUBL  FCONST  ?FC?LIB_EOL_DIAG_VERSION
C000CEH   C000E4H   000017H   DATA  REL   BYTE   ---  ---  PUBL  FCONST  ?FC?LIB_DTC_DIAG_VERSION
C000E6H   C000FBH   000016H   CODE  REL   WORD   ---  ---  PRIV  FCODE   ?PR?MEMCPY
C00100H   C0010BH   00000CH   ---   ---   ---    ---  ---  ---   * INTVECTOR TABLE *
C0010CH   C0018DH   000082H   DATA  REL   WORD   ---  ---  PUBL  FCONST  ?FC?YPARA
C0018EH   C001B7H   00002AH   CODE  REL   WORD   ---  ---  PUBL  FCODE   ?PR?XCP_CAN
C001B8H   C001BBH   000004H   ---   ---   ---    ---  ---  ---   * INTVECTOR TABLE *
C001BCH   C00FCFH   000E14H   DATA  REL   WORD   ---  ---  PUBL  FCONST  ?FC?SIN_DATA
C00FD0H   C01153H   000184H   CODE  REL   WORD   ---  ---  PRIV  ICODE   ?C_STARTUP_CODE
C01154H   C0266DH   00151AH   CODE  REL   WORD   ---  ---  PUBL  FCODE   ?PR?XCPBASIC
L166 LINKER/LOCATER V5.29.2.0                                                         12/14/2020  10:56:44  PAGE 5


C0266EH   C02DCDH   000760H   CODE  REL   WORD   ---  ---  PUBL  FCODE   ?PR?XC2K_CAN
C02DCEH   C0344DH   000680H   CODE  REL   WORD   ---  ---  PUBL  FCODE   ?PR?SVPWM
C0344EH   C03A25H   0005D8H   CODE  REL   WORD   ---  ---  PUBL  FCODE   ?PR?MOTOR_BLDC
C03A26H   C03F77H   000552H   CODE  REL   WORD   ---  ---  PUBL  FCODE   ?PR?SCS
C03F78H   C03FE7H   000070H   CODE  REL   WORD   ---  ---  PUBL  FCODE   ?PR?AUT_DRV
C03FE8H   C03FFDH   000016H   CODE  REL   WORD   ---  ---  PRIV  FCODE   ?PR?FMEMCPY
C04000H   C0400BH   00000CH   DATA  REL   WORD   ---    3  PUBL  NCONST  ?NC?MOTOR_BLDC
C0400CH   C04010H   000005H   DATA  REL   BYTE   ---    3  PUBL  NCONST  ?NC?DTC_MAN
C04011H   C04013H   000003H   DATA  REL   BYTE   ---    3  PUBL  NCONST  ?NC?XCPBASIC
C04014H   C04015H   000002H   DATA  REL   WORD   ---    3  PUBL  NCONST  ?NC?CTRL
C04016H   C0450DH   0004F8H   CODE  REL   WORD   ---  ---  PUBL  FCODE   ?PR?EBOOSTER_CTRL
C0450EH   C049D7H   0004CAH   CODE  REL   WORD   ---  ---  PUBL  FCODE   ?C_LIB_CODE
C049D8H   C04DEDH   000416H   CODE  REL   WORD   ---  ---  PUBL  FCODE   ?PR?CCU2_CCU6
C04DEEH   C05129H   00033CH   CODE  REL   WORD   ---  ---  PUBL  FCODE   ?PR?RESOLVER_AD2S
C0512AH   C0544DH   000324H   CODE  REL   WORD   ---  ---  PUBL  FCODE   ?PR?EEPROM
C0544EH   C0575FH   000312H   CODE  REL   WORD   ---  ---  PUBL  FCODE   ?PR?HICAN
C05760H   C05A23H   0002C4H   CODE  REL   WORD   ---  ---  PUBL  FCODE   ?PR?SENT_DECODE
C05A24H   C05C7FH   00025CH   CODE  REL   WORD   ---  ---  PUBL  FCODE   ?PR?ADC
C05C80H   C05E53H   0001D4H   CODE  REL   WORD   ---  ---  PUBL  FCODE   ?PR?FILTERS
C05E54H   C0601BH   0001C8H   CODE  REL   WORD   ---  ---  PUBL  FCODE   ?PR?CTRL
C0601CH   C061E3H   0001C8H   CODE  REL   WORD   ---  ---  PUBL  FCODE   ?PR?CTRL_IF
C061E4H   C063A9H   0001C6H   CODE  REL   WORD   ---  ---  PUBL  FCODE   ?PR?HW
C063AAH   C0653BH   000192H   CODE  REL   WORD   ---  ---  PUBL  FCODE   ?PR?PID
C0653CH   C066BBH   000180H   CODE  REL   WORD   ---  ---  PUBL  FCODE   ?PR?TLE9180D_31QK
C066BCH   C06831H   000176H   CODE  REL   WORD   ---  ---  PUBL  FCODE   ?PR?SSC
C06832H   C06999H   000168H   CODE  REL   WORD   ---  ---  PUBL  FCODE   ?PR?MOTOR_PMSM
C0699AH   C06AAFH   000116H   CODE  REL   WORD   ---  ---  PUBL  FCODE   ?PR?PWM
C06AB0H   C06B8BH   0000DCH   CODE  REL   WORD   ---  ---  PUBL  FCODE   ?PR?MOTORDRIVE
C06B8CH   C06C5FH   0000D4H   CODE  REL   WORD   ---  ---  PUBL  FCODE   ?PR?TIMER
C06C60H   C06D31H   0000D2H   CODE  REL   WORD   ---  ---  PUBL  FCODE   ?PR?MAIN
C06D32H   C06DFFH   0000CEH   CODE  REL   WORD   ---  ---  PUBL  FCODE   ?PR?_XCP_APPL
C06E00H   C06EC5H   0000C6H   CODE  REL   WORD   ---  ---  PUBL  FCODE   ?PR?MCU1_IMP
C06EC6H   C06F55H   000090H   CODE  REL   WORD   ---  ---  PUBL  FCODE   ?PR?FILTERS_EBSSENSORS
C06F56H   C06FB3H   00005EH   CODE  REL   WORD   ---  ---  PUBL  FCODE   ?PR?MOTORCTRLSET
C06FB4H   C07009H   000056H   CODE  REL   WORD   ---  ---  PUBL  FCODE   ?PR?RTC
C0700AH   C0704BH   000042H   CODE  REL   WORD   ---  ---  PUBL  FCODE   ?PR?CAN_TEST
C0704CH   C07087H   00003CH   CODE  REL   WORD   ---  ---  PUBL  FCODE   ?PR?DTC_MAN
C07088H   C070BDH   000036H   CODE  REL   WORD   ---  ---  PUBL  FCODE   ?PR?DIAG_HW
C070BEH   C070EBH   00002EH   CODE  REL   WORD   ---  ---  PUBL  FCODE   ?PR?TRAP
C070ECH   C07119H   00002EH   CODE  REL   WORD   ---  ---  PUBL  FCODE   ?PR?PROT_IMP
C0711AH   C0713BH   000022H   CODE  REL   WORD   ---  ---  PUBL  FCODE   ?PR?MAIN_TASK
C0713CH   C07157H   00001CH   CODE  REL   WORD   ---  ---  PUBL  FCODE   ?PR?MCU2_IMP
C07158H   C0716BH   000014H   CODE  REL   WORD   ---  ---  PUBL  FCODE   ?PR?TASK_MAN
C10000H   C10605H   000606H   XDATA REL   WORD   ---  ---  GLOB  ---     ?C_INITSEC
C10606H   C106CFH   0000CAH   CONST ABS   WORD   ---  ---  PRIV  ---     ?C_CLRMEMSEC
E00000H   E001FFH   000200H   DATA  REL   WORD   ---    1  PUBL  NDATA   ?C_USERSTACK
E00200H   E0021FH   000020H   DATA  REL   WORD   ---    1  PUBL  NDATA   ?C_USERSTACK1
E00220H   E0023FH   000020H   DATA  REL   WORD   ---    1  PUBL  NDATA   ?C_USERSTACK2
E00240H   E002BDH   00007EH   DATA  REL   WORD   ---    1  PUBL  NDATA0  ?ND0?EBOOSTER_CTRL
E002BEH   E002EEH   000031H   DATA  REL   WORD   ---    1  PUBL  NDATA0  ?ND0?MOTOR_BLDC
E002EFH   E002EFH   000001H   DATA  REL   BYTE   ---    1  PUBL  NDATA0  ?ND0?XC2K_CAN
E002F0H   E00317H   000028H   DATA  REL   WORD   ---    1  PUBL  NDATA0  ?ND0?FILTERS
E00318H   E00333H   00001CH   DATA  REL   WORD   ---    1  PUBL  NDATA0  ?ND0?MAIN
E00334H   E00349H   000016H   DATA  REL   WORD   ---    1  PUBL  NDATA0  ?ND0?DTC_MAN
E0034AH   E0035CH   000013H   DATA  REL   WORD   ---    1  PUBL  NDATA0  ?ND0?PROT_IMP
E0035DH   E0035DH   000001H   DATA  REL   BYTE   ---    1  PUBL  NDATA0  ?ND0?MCU2_IMP
E0035EH   E0036BH   00000EH   DATA  REL   WORD   ---    1  PUBL  NDATA0  ?ND0?SENT_DECODE
L166 LINKER/LOCATER V5.29.2.0                                                         12/14/2020  10:56:44  PAGE 6


E0036CH   E00379H   00000EH   DATA  REL   WORD   ---    1  PUBL  NDATA0  ?ND0?FILTERS_EBSSENSORS
E0037AH   E00385H   00000CH   DATA  REL   WORD   ---    1  PUBL  NDATA0  ?ND0?RESOLVER_AD2S
E00386H   E00391H   00000CH   DATA  REL   WORD   ---    1  PUBL  NDATA0  ?ND0?MOTOR_PMSM
E00392H   E0039DH   00000CH   DATA  REL   WORD   ---    1  PUBL  NDATA0  ?ND0?SVPWM
E0039EH   E003A8H   00000BH   DATA  REL   WORD   ---    1  PUBL  NDATA0  ?ND0?HICAN
E003AAH   E003B4H   00000BH   DATA  REL   WORD   ---    1  PUBL  NDATA0  ?ND0?CTRL
E003B6H   E003BFH   00000AH   DATA  REL   WORD   ---    1  PUBL  NDATA0  ?ND0?SCS
E003C0H   E003C9H   00000AH   DATA  REL   WORD   ---    1  PUBL  NDATA0  ?ND0?TASK_MAN
E003CAH   E003D2H   000009H   DATA  REL   WORD   ---    1  PUBL  NDATA0  ?ND0?CAN_TEST
E003D4H   E003DBH   000008H   DATA  REL   WORD   ---    1  PUBL  NDATA0  ?ND0?RTC
E003DCH   E003E3H   000008H   DATA  REL   WORD   ---    1  PUBL  NDATA0  ?ND0?CCU2_CCU6
E003E4H   E003EBH   000008H   DATA  REL   WORD   ---    1  PUBL  NDATA0  ?ND0?MOTORCTRLSET
E003ECH   E003F1H   000006H   DATA  REL   WORD   ---    1  PUBL  NDATA0  ?ND0?MOTORDRIVE
E003F2H   E003F5H   000004H   DATA  REL   BYTE   ---    1  PUBL  NDATA0  ?ND0?DIAG_HW
E003F6H   E003F9H   000004H   DATA  REL   WORD   ---    1  PUBL  NDATA0  ?ND0?MCU1_IMP
E003FAH   E003FCH   000003H   DATA  REL   BYTE   ---    1  PUBL  NDATA0  ?ND0?TIMER
E003FDH   E003FEH   000002H   DATA  REL   BYTE   ---    1  PUBL  NDATA0  ?ND0?ADC
E003FFH   E00400H   000002H   DATA  REL   BYTE   ---    1  PUBL  NDATA0  ?ND0?HW
E00401H   E00402H   000002H   DATA  REL   BYTE   ---    1  PUBL  NDATA0  ?ND0?_XCP_APPL
E00404H   E00405H   000002H   DATA  REL   WORD   ---    1  PUBL  NDATA0  ?ND0?CTRL_IF



GROUP LIST OF MODULE:  .\objs\Mcu2K_Test (?C_STARTUP)


GROUP NAME                           TYPE  TGR  GRP  CLASS       SECTION NAME
=============================================================================
NDATA                                DATA  ---    1  NDATA       ?C_USERSTACK
                                                     NDATA       ?C_USERSTACK1
                                                     NDATA       ?C_USERSTACK2
                                                     NDATA0      ?ND0?ADC
                                                     NDATA0      ?ND0?HW
                                                     NDATA0      ?ND0?RTC
                                                     NDATA0      ?ND0?SCS
                                                     NDATA0      ?ND0?TIMER
                                                     NDATA0      ?ND0?XC2K_CAN
                                                     NDATA0      ?ND0?CCU2_CCU6
                                                     NDATA0      ?ND0?CAN_TEST
                                                     NDATA0      ?ND0?DIAG_HW
                                                     NDATA0      ?ND0?DTC_MAN
                                                     NDATA0      ?ND0?MCU1_IMP
                                                     NDATA0      ?ND0?TASK_MAN
                                                     NDATA0      ?ND0?MCU2_IMP
                                                     NDATA0      ?ND0?PROT_IMP
                                                     NDATA0      ?ND0?HICAN
                                                     NDATA0      ?ND0?_XCP_APPL
                                                     NDATA0      ?ND0?MAIN
                                                     NDATA0      ?ND0?CTRL
                                                     NDATA0      ?ND0?RESOLVER_AD2S
                                                     NDATA0      ?ND0?MOTOR_BLDC
                                                     NDATA0      ?ND0?MOTOR_PMSM
                                                     NDATA0      ?ND0?SVPWM
                                                     NDATA0      ?ND0?FILTERS
                                                     NDATA0      ?ND0?CTRL_IF
                                                     NDATA0      ?ND0?SENT_DECODE
                                                     NDATA0      ?ND0?MOTORCTRLSET
L166 LINKER/LOCATER V5.29.2.0                                                         12/14/2020  10:56:44  PAGE 7


                                                     NDATA0      ?ND0?MOTORDRIVE
                                                     NDATA0      ?ND0?EBOOSTER_CTRL
                                                     NDATA0      ?ND0?FILTERS_EBSSENSORS

SDATA                                DATA  ---    2  IDATA       ?C_SYSSTACK

NCONST                               DATA  ---    3  NCONST      ?NC?DTC_MAN
                                                     NCONST      ?NC?XCPBASIC
                                                     NCONST      ?NC?CTRL
                                                     NCONST      ?NC?MOTOR_BLDC




PUBLIC SYMBOLS OF MODULE:  .\objs\Mcu2K_Test (?C_STARTUP)


      VALUE       PUBLIC SYMBOL NAME               REP   TGR  CLASS   SECTION
      =======================================================================
      C049CAH     ?C_BCPYNF                        LABEL ---  FCODE   ?C_LIB_CODE
      C04752H     ?C_CASTF                         LABEL ---  FCODE   ?C_LIB_CODE
      C10606H     ?C_CLRMEMSECSTART                VAR   ---  ---     ---
      000033H     ?C_DPPRECISION                   CONST ---  ---     ---
      C10604H     ?C_ENDINIT                       VAR   ---  ---     ?C_INITSEC
      C047AEH     ?C_FCAST                         LABEL ---  FCODE   ?C_LIB_CODE
      C04512H     ?C_FPADD                         LABEL ---  FCODE   ?C_LIB_CODE
      C047F4H     ?C_FPCMP                         LABEL ---  FCODE   ?C_LIB_CODE
      C0468AH     ?C_FPDIV                         LABEL ---  FCODE   ?C_LIB_CODE
      C04886H     ?C_FPGETOPN                      LABEL ---  FCODE   ?C_LIB_CODE
      C048B4H     ?C_FPINFRSL                      LABEL ---  FCODE   ?C_LIB_CODE
      C045F6H     ?C_FPMUL                         LABEL ---  FCODE   ?C_LIB_CODE
      C048ACH     ?C_FPNANRSL                      LABEL ---  FCODE   ?C_LIB_CODE
      C04876H     ?C_FPNEG                         LABEL ---  FCODE   ?C_LIB_CODE
      C048D6H     ?C_FPNOERR                       LABEL ---  FCODE   ?C_LIB_CODE
      C048C0H     ?C_FPOPRSL                       LABEL ---  FCODE   ?C_LIB_CODE
      000015H     ?C_FPPRECISION                   CONST ---  ---     ---
      C048CCH     ?C_FPRSLNR                       LABEL ---  FCODE   ?C_LIB_CODE
      C0450EH     ?C_FPSUB                         LABEL ---  FCODE   ?C_LIB_CODE
      C048E4H     ?C_FPUNFRS                       LABEL ---  FCODE   ?C_LIB_CODE
      C04550H     ?C_FPXSUB                        LABEL ---  FCODE   ?C_LIB_CODE
      C048E4H     ?C_FPZERRSL                      LABEL ---  FCODE   ?C_LIB_CODE
      C10000H     ?C_INITSECSTART                  VAR   ---  ---     ---
      C048EAH     ?C_LMUL                          LABEL ---  FCODE   ?C_LIB_CODE
      C00000H     ?C_NCONSTBASE                    CONST ---  ---     ---
      0000C0H     ?C_NCONSTBASESEG                 CONST ---  ---     ---
      DF8000H     ?C_NDATABASE                     CONST ---  ---     ---
      0000DFH     ?C_NDATABASESEG                  CONST ---  ---     ---
      000000H     ?C_PAGEDPP0                      CONST ---  ---     ---
      000301H     ?C_PAGEDPP1                      CONST ---  ---     ---
      000380H     ?C_PAGEDPP2                      CONST ---  ---     ---
      C04994H     ?C_SLDIV                         LABEL ---  FCODE   ?C_LIB_CODE
      C00FD0H     ?C_STARTUP                       LABEL ---  ICODE   ?C_STARTUP_CODE
      00F600H     ?C_SYSSTKBOT                     VAR   ---  IDATA   ?C_SYSSTACK
      00F800H     ?C_SYSSTKTOP                     VAR   ---  IDATA   ?C_SYSSTACK
      C04902H     ?C_ULDIV                         LABEL ---  FCODE   ?C_LIB_CODE
      E00000H     ?C_USRSTKBOT                     VAR   ---  NDATA   ?C_USERSTACK
      000000H     ?L?VECSC                         CONST ---  ---     ---
L166 LINKER/LOCATER V5.29.2.0                                                         12/14/2020  10:56:44  PAGE 8


      00AAB8H     AUT_DRV_BUFF                     VAR   ---  FDATA0  ?FD0?AUT_DRV
      C06D40H     ApplXcpGetCalPage                LABEL ---  FCODE   ?PR?_XCP_APPL
      C06D76H     ApplXcpGetPointer                LABEL ---  FCODE   ?PR?_XCP_APPL
      C06D86H     ApplXcpGetSeed                   LABEL ---  FCODE   ?PR?_XCP_APPL
      C06D3CH     ApplXcpGetTimestamp              LABEL ---  FCODE   ?PR?_XCP_APPL
      C06D32H     ApplXcpInitTemplate              LABEL ---  FCODE   ?PR?_XCP_APPL
      C001B4H     ApplXcpInterruptDisable          LABEL ---  FCODE   ?PR?XCP_CAN
      C001B6H     ApplXcpInterruptEnable           LABEL ---  FCODE   ?PR?XCP_CAN
      C06DFCH     ApplXcpSendStall                 LABEL ---  FCODE   ?PR?_XCP_APPL
      C06D46H     ApplXcpSetCalPage                LABEL ---  FCODE   ?PR?_XCP_APPL
      C06DBEH     ApplXcpUnlock                    LABEL ---  FCODE   ?PR?_XCP_APPL
      E003E8H     Backward                         VAR   ---  NDATA0  ?ND0?MOTORCTRLSET
      E00264H     BrkStarVal                       VAR   ---  NDATA0  ?ND0?EBOOSTER_CTRL
      C04014H     C_VAL_DISP_INITIAL               VAR   ---  NCONST  ?NC?CTRL
      C02DCEH     Clark                            LABEL ---  FCODE   ?PR?SVPWM
      E00292H     ControlD                         VAR   ---  NDATA0  ?ND0?EBOOSTER_CTRL
      E0028EH     ControlI                         VAR   ---  NDATA0  ?ND0?EBOOSTER_CTRL
      E00258H     ControlMode                      VAR   ---  NDATA0  ?ND0?EBOOSTER_CTRL
      E002A4H     ControlModePre                   VAR   ---  NDATA0  ?ND0?EBOOSTER_CTRL
      E00282H     ControlP                         VAR   ---  NDATA0  ?ND0?EBOOSTER_CTRL
      E003ECH     Control_mode                     VAR   ---  NDATA0  ?ND0?MOTORDRIVE
      E0026EH     DataTimer20ms                    VAR   ---  NDATA0  ?ND0?EBOOSTER_CTRL
      E00254H     Derror                           VAR   ---  NDATA0  ?ND0?EBOOSTER_CTRL
      E00242H     DisplacementInit                 VAR   ---  NDATA0  ?ND0?EBOOSTER_CTRL
      E002BAH     DisplacementSenseMM              VAR   ---  NDATA0  ?ND0?EBOOSTER_CTRL
      E002AAH     DisplacementSenseMM_Pre          VAR   ---  NDATA0  ?ND0?EBOOSTER_CTRL
      C04016H     DoEboosterCtrl                   LABEL ---  FCODE   ?PR?EBOOSTER_CTRL
      E0028CH     Drv_state                        VAR   ---  NDATA0  ?ND0?EBOOSTER_CTRL
      C0400CH     EE_VER                           VAR   ---  NCONST  ?NC?DTC_MAN
      E00250H     Eerror                           VAR   ---  NDATA0  ?ND0?EBOOSTER_CTRL
      E0029AH     Eerror_pre                       VAR   ---  NDATA0  ?ND0?EBOOSTER_CTRL
      E003E4H     Forward                          VAR   ---  NDATA0  ?ND0?MOTORCTRLSET
      C0001CH     G_PWM_EX_PERIOD_STD              VAR   ---  FCONST  ?FC?CCU2_CCU6
      00A97AH     I                                VAR   ---  FDATA0  ?FD0?MOTOR_PMSM
      C02EEAH     IPark                            LABEL ---  FCODE   ?PR?SVPWM
      E002AEH     LimitState                       VAR   ---  NDATA0  ?ND0?EBOOSTER_CTRL
      C06F56H     MotorCtrlSet                     LABEL ---  FCODE   ?PR?MOTORCTRLSET
      C06AB0H     MotorDrive                       LABEL ---  FCODE   ?PR?MOTORDRIVE
      E003E6H     MotorModeSet                     VAR   ---  NDATA0  ?ND0?MOTORCTRLSET
      E003EAH     MotorOffset                      VAR   ---  NDATA0  ?ND0?MOTORCTRLSET
      E0029EH     MotorState                       VAR   ---  NDATA0  ?ND0?EBOOSTER_CTRL
      C0648EH     PID_Init                         LABEL ---  FCODE   ?PR?PID
      C063AAH     PID_realize                      LABEL ---  FCODE   ?PR?PID
      C02DD0H     Park                             LABEL ---  FCODE   ?PR?SVPWM
      E00260H     PercentError                     VAR   ---  NDATA0  ?ND0?EBOOSTER_CTRL
      E00276H     PressureAVE                      VAR   ---  NDATA0  ?ND0?EBOOSTER_CTRL
      E00246H     PressureInit                     VAR   ---  NDATA0  ?ND0?EBOOSTER_CTRL
      000000H     RESET                            INTNO ---  ---     ---
      E002B0H     RodActual                        VAR   ---  NDATA0  ?ND0?EBOOSTER_CTRL
      E00288H     RodActual0                       VAR   ---  NDATA0  ?ND0?EBOOSTER_CTRL
      E002A6H     RodActual_Pre                    VAR   ---  NDATA0  ?ND0?EBOOSTER_CTRL
      E00278H     RodMotor                         VAR   ---  NDATA0  ?ND0?EBOOSTER_CTRL
      C03E22H     SCS_ApplyNewK1Div                LABEL ---  FCODE   ?PR?SCS
      C03E76H     SCS_ApplyNewK2Div                LABEL ---  FCODE   ?PR?SCS
      C03DB8H     SCS_ApplyNewNDiv                 LABEL ---  FCODE   ?PR?SCS
      C03D4CH     SCS_ApplyNewPDiv                 LABEL ---  FCODE   ?PR?SCS
      C03CBAH     SCS_CheckFreqOscHiPrec           LABEL ---  FCODE   ?PR?SCS
L166 LINKER/LOCATER V5.29.2.0                                                         12/14/2020  10:56:44  PAGE 9


      C03A3CH     SCS_ConnectVcoInput              LABEL ---  FCODE   ?PR?SCS
      C03A7AH     SCS_DelayByTimer                 LABEL ---  FCODE   ?PR?SCS
      C03F30H     SCS_DisableVcoBypass             LABEL ---  FCODE   ?PR?SCS
      C03A34H     SCS_DisconnectVcoInput           LABEL ---  FCODE   ?PR?SCS
      C03A26H     SCS_EnableOscHiPrecCrystal       LABEL ---  FCODE   ?PR?SCS
      C03F54H     SCS_EnableVcoBypass              LABEL ---  FCODE   ?PR?SCS
      C03EF2H     SCS_EnableVcoLockEmerg           LABEL ---  FCODE   ?PR?SCS
      C03AFEH     SCS_GoFromBaseToNormalMode       LABEL ---  FCODE   ?PR?SCS
      C03C0EH     SCS_InitTimer                    LABEL ---  FCODE   ?PR?SCS
      C03A2EH     SCS_RestartVcoLockDetect         LABEL ---  FCODE   ?PR?SCS
      C03C86H     SCS_RestoreTimer                 LABEL ---  FCODE   ?PR?SCS
      C03A44H     SCS_SelectVcoBand                LABEL ---  FCODE   ?PR?SCS
      C03ECCH     SCS_SelectVcoSrcOscHiPrec        LABEL ---  FCODE   ?PR?SCS
      C03A52H     SCS_StartTimer                   LABEL ---  FCODE   ?PR?SCS
      00AA82H     TLE9180D_Conf_Reg                VAR   ---  FDATA0  ?FD0?TLE9180D_31QK
      E003EEH     TestDUTY                         VAR   ---  NDATA0  ?ND0?MOTORDRIVE
      E00296H     Timer1s                          VAR   ---  NDATA0  ?ND0?EBOOSTER_CTRL
      E00240H     Timer500ms                       VAR   ---  NDATA0  ?ND0?EBOOSTER_CTRL
      E00244H     TimerCycle                       VAR   ---  NDATA0  ?ND0?EBOOSTER_CTRL
      E00280H     TimerState0                      VAR   ---  NDATA0  ?ND0?EBOOSTER_CTRL
      E0027EH     TimerState1                      VAR   ---  NDATA0  ?ND0?EBOOSTER_CTRL
      E0027CH     TimerState2                      VAR   ---  NDATA0  ?ND0?EBOOSTER_CTRL
      E002A0H     TryRod0                          VAR   ---  NDATA0  ?ND0?EBOOSTER_CTRL
      E00328H     TryValue1                        VAR   ---  NDATA0  ?ND0?MAIN
      E00332H     TryValue10                       VAR   ---  NDATA0  ?ND0?MAIN
      E00330H     TryValue11                       VAR   ---  NDATA0  ?ND0?MAIN
      E0032EH     TryValue12                       VAR   ---  NDATA0  ?ND0?MAIN
      E0032AH     TryValue13                       VAR   ---  NDATA0  ?ND0?MAIN
      E00326H     TryValue2                        VAR   ---  NDATA0  ?ND0?MAIN
      E00324H     TryValue3                        VAR   ---  NDATA0  ?ND0?MAIN
      E00322H     TryValue4                        VAR   ---  NDATA0  ?ND0?MAIN
      E00320H     TryValue5                        VAR   ---  NDATA0  ?ND0?MAIN
      E0031EH     TryValue6                        VAR   ---  NDATA0  ?ND0?MAIN
      E0031CH     TryValue7                        VAR   ---  NDATA0  ?ND0?MAIN
      E0031AH     TryValue8                        VAR   ---  NDATA0  ?ND0?MAIN
      E00318H     TryValue9                        VAR   ---  NDATA0  ?ND0?MAIN
      E003AAH     TryVqs                           VAR   ---  NDATA0  ?ND0?CTRL
      00A93AH     V                                VAR   ---  FDATA0  ?FD0?MOTOR_PMSM
      E00268H     Voltage                          VAR   ---  NDATA0  ?ND0?EBOOSTER_CTRL
      E00388H     Vqs_cmd                          VAR   ---  NDATA0  ?ND0?MOTOR_PMSM
      C01B54H     XcpBackground                    LABEL ---  FCODE   ?PR?XCPBASIC
      C00190H     XcpCanBackground                 LABEL ---  FCODE   ?PR?XCP_CAN
      C0018EH     XcpCanInit                       LABEL ---  FCODE   ?PR?XCP_CAN
      C00192H     XcpCanSend                       LABEL ---  FCODE   ?PR?XCP_CAN
      C01C30H     XcpCommand                       LABEL ---  FCODE   ?PR?XCPBASIC
      C01C0AH     XcpDisconnect                    LABEL ---  FCODE   ?PR?XCPBASIC
      C0178CH     XcpEvent                         LABEL ---  FCODE   ?PR?XCPBASIC
      C025CAH     XcpExit                          LABEL ---  FCODE   ?PR?XCPBASIC
      C01198H     XcpGetActiveTl                   LABEL ---  FCODE   ?PR?XCPBASIC
      C0259EH     XcpInit                          LABEL ---  FCODE   ?PR?XCPBASIC
      C01174H     XcpMemCpy                        LABEL ---  FCODE   ?PR?XCPBASIC
      C01154H     XcpMemSet                        LABEL ---  FCODE   ?PR?XCPBASIC
      C02522H     XcpSendCallBack                  LABEL ---  FCODE   ?PR?XCPBASIC
      C011A2H     XcpSendCrm                       LABEL ---  FCODE   ?PR?XCPBASIC
      C0128EH     XcpSendDto                       LABEL ---  FCODE   ?PR?XCPBASIC
      C025CCH     XcpSendEvent                     LABEL ---  FCODE   ?PR?XCPBASIC
      C0118CH     XcpSetActiveTl                   LABEL ---  FCODE   ?PR?XCPBASIC
L166 LINKER/LOCATER V5.29.2.0                                                         12/14/2020  10:56:44  PAGE 10


      C0003CH     ad0_chx                          VAR   ---  FCONST  ?FC?ADC
      C0002CH     ad1_chx                          VAR   ---  FCONST  ?FC?ADC
      C05B8EH     ad_scan                          LABEL ---  FCODE   ?PR?ADC
      C05A24H     ad_setting                       LABEL ---  FCODE   ?PR?ADC
      C06D08H     app_10ms_task                    LABEL ---  FCODE   ?PR?MAIN
      C06D26H     app_5ms_task                     LABEL ---  FCODE   ?PR?MAIN
      C06CBEH     app_init                         LABEL ---  FCODE   ?PR?MAIN
      C06D2CH     app_mainloop_task                LABEL ---  FCODE   ?PR?MAIN
      C051E6H     byte_shift                       LABEL ---  FCODE   ?PR?EEPROM
      C070F8H     calc_chksum                      LABEL ---  FCODE   ?PR?PROT_IMP
      C03980H     calc_mot_speed                   LABEL ---  FCODE   ?PR?MOTOR_BLDC
      C038F6H     calc_mot_total_angle             LABEL ---  FCODE   ?PR?MOTOR_BLDC
      C06914H     calc_motor_pos                   LABEL ---  FCODE   ?PR?MOTOR_PMSM
      C02B08H     can_abort                        LABEL ---  FCODE   ?PR?XC2K_CAN
      C02B1CH     can_busy                         LABEL ---  FCODE   ?PR?XC2K_CAN
      C05ECEH     can_do_obj                       LABEL ---  FCODE   ?PR?CTRL
      C0566EH     can_do_objx_hook_hican           LABEL ---  FCODE   ?PR?HICAN
      C029E8H     can_load                         LABEL ---  FCODE   ?PR?XC2K_CAN
      C02878H     can_rx                           LABEL ---  FCODE   ?PR?XC2K_CAN
      C0266EH     can_setting                      LABEL ---  FCODE   ?PR?XC2K_CAN
      C02DCAH     can_settingx                     LABEL ---  FCODE   ?PR?XC2K_CAN
      C02B36H     can_sload                        LABEL ---  FCODE   ?PR?XC2K_CAN
      C02AB2H     can_stx                          LABEL ---  FCODE   ?PR?XC2K_CAN
      C02ADEH     can_stx_ex                       LABEL ---  FCODE   ?PR?XC2K_CAN
      C0701CH     can_test_enter                   LABEL ---  FCODE   ?PR?CAN_TEST
      C07026H     can_test_exit                    LABEL ---  FCODE   ?PR?CAN_TEST
      C07010H     can_test_init                    LABEL ---  FCODE   ?PR?CAN_TEST
      C0700AH     can_test_on                      LABEL ---  FCODE   ?PR?CAN_TEST
      E003D1H     can_test_timeout                 VAR   ---  NDATA0  ?ND0?CAN_TEST
      C02746H     can_tx                           LABEL ---  FCODE   ?PR?XC2K_CAN
      C02DC6H     can_txx                          LABEL ---  FCODE   ?PR?XC2K_CAN
      C06342H     capcom_setting                   LABEL ---  FCODE   ?PR?HW
      C049D8H     cc2_setting                      LABEL ---  FCODE   ?PR?CCU2_CCU6
      C04A08H     cc6_setting                      LABEL ---  FCODE   ?PR?CCU2_CCU6
      C0529EH     cmd_rdsr                         LABEL ---  FCODE   ?PR?EEPROM
      C0527CH     cmd_wrdi                         LABEL ---  FCODE   ?PR?EEPROM
      C0525AH     cmd_wren                         LABEL ---  FCODE   ?PR?EEPROM
      C052D0H     cmd_wrsr                         LABEL ---  FCODE   ?PR?EEPROM
      00AA9EH     comp_on_tout                     VAR   ---  FDATA0  ?FD0?PROT_IMP
      00AA5EH     comp_toutx                       VAR   ---  FDATA0  ?FD0?TASK_MAN
      E002FAH     currentD                         VAR   ---  NDATA0  ?ND0?FILTERS
      E002F8H     currentQ                         VAR   ---  NDATA0  ?ND0?FILTERS
      C06384H     delay_ms                         LABEL ---  FCODE   ?PR?HW
      C0636EH     delay_msx                        LABEL ---  FCODE   ?PR?HW
      C06358H     delay_ns                         LABEL ---  FCODE   ?PR?HW
      C06344H     delay_us                         LABEL ---  FCODE   ?PR?HW
      C07088H     diag_hw_init                     LABEL ---  FCODE   ?PR?DIAG_HW
      C070BAH     diag_in_hook                     LABEL ---  FCODE   ?PR?DIAG_HW
      C070A8H     diag_main_loop_hook              LABEL ---  FCODE   ?PR?DIAG_HW
      E00359H     diag_mode                        VAR   ---  NDATA0  ?ND0?PROT_IMP
      E0035DH     diag_on_bak                      VAR   ---  NDATA0  ?ND0?MCU2_IMP
      C070BCH     diag_out_hook                    LABEL ---  FCODE   ?PR?DIAG_HW
      C06E06H     diag_timer_10ms_hook             LABEL ---  FCODE   ?PR?MCU1_IMP
      C06E24H     diag_timer_50ms_hook             LABEL ---  FCODE   ?PR?MCU1_IMP
      C03F78H     do_aut_drv_response              LABEL ---  FCODE   ?PR?AUT_DRV
      C05646H     do_boff_recovery                 LABEL ---  FCODE   ?PR?HICAN
      C07118H     do_component_test                LABEL ---  FCODE   ?PR?PROT_IMP
L166 LINKER/LOCATER V5.29.2.0                                                         12/14/2020  10:56:44  PAGE 11


      C06E02H     do_mcu1                          LABEL ---  FCODE   ?PR?MCU1_IMP
      C07154H     do_mcu1_msg                      LABEL ---  FCODE   ?PR?MCU2_IMP
      C07152H     do_mcu2                          LABEL ---  FCODE   ?PR?MCU2_IMP
      C06E04H     do_mcu2_msg                      LABEL ---  FCODE   ?PR?MCU1_IMP
      C0715AH     do_mcu2_task                     LABEL ---  FCODE   ?PR?TASK_MAN
      C0715CH     do_mcu2_task_10ms_hook           LABEL ---  FCODE   ?PR?TASK_MAN
      C07158H     do_mcu2_task_init                LABEL ---  FCODE   ?PR?TASK_MAN
      C07166H     do_mcu2_taskx                    LABEL ---  FCODE   ?PR?TASK_MAN
      C0716AH     do_mcu2_taskx_10ms_hook          LABEL ---  FCODE   ?PR?TASK_MAN
      C07164H     do_mcu2_taskx_init               LABEL ---  FCODE   ?PR?TASK_MAN
      C036A6H     do_motor_bldc_ctrl               LABEL ---  FCODE   ?PR?MOTOR_BLDC
      C0344EH     do_motor_bldc_debug              LABEL ---  FCODE   ?PR?MOTOR_BLDC
      C06832H     do_motor_pmsm_ctrl               LABEL ---  FCODE   ?PR?MOTOR_PMSM
      C07028H     do_objx                          LABEL ---  FCODE   ?PR?CAN_TEST
      C070A6H     do_spi_char                      LABEL ---  FCODE   ?PR?DIAG_HW
      C070ECH     do_tester_msg                    LABEL ---  FCODE   ?PR?PROT_IMP
      C07050H     dtc_add                          LABEL ---  FCODE   ?PR?DTC_MAN
      C07054H     dtc_del                          LABEL ---  FCODE   ?PR?DTC_MAN
      C07058H     dtc_del_all                      LABEL ---  FCODE   ?PR?DTC_MAN
      C07060H     dtc_info                         LABEL ---  FCODE   ?PR?DTC_MAN
      C00004H     dtc_infox                        LABEL ---  FCODE   ?PR?DTC_MAN_MCU2
      C0705CH     dtc_list                         LABEL ---  FCODE   ?PR?DTC_MAN
      C0704CH     dtc_man_init                     LABEL ---  FCODE   ?PR?DTC_MAN
      C07068H     dtc_man_nsr                      LABEL ---  FCODE   ?PR?DTC_MAN
      E00340H     dtc_pt                           VAR   ---  NDATA0  ?ND0?DTC_MAN
      E002B6H     e_error_0                        VAR   ---  NDATA0  ?ND0?EBOOSTER_CTRL
      C0512AH     eeprom_init                      LABEL ---  FCODE   ?PR?EEPROM
      C053D0H     eeprom_rd                        LABEL ---  FCODE   ?PR?EEPROM
      C05302H     eeprom_wr                        LABEL ---  FCODE   ?PR?EEPROM
      C0706CH     eeprom_wr_hook                   LABEL ---  FCODE   ?PR?DTC_MAN
      C05D84H     filter_currentA                  LABEL ---  FCODE   ?PR?FILTERS
      C05DB8H     filter_currentB                  LABEL ---  FCODE   ?PR?FILTERS
      C05DECH     filter_currentC                  LABEL ---  FCODE   ?PR?FILTERS
      C05D1CH     filter_currentD                  LABEL ---  FCODE   ?PR?FILTERS
      C05E20H     filter_currentM                  LABEL ---  FCODE   ?PR?FILTERS
      C05D50H     filter_currentQ                  LABEL ---  FCODE   ?PR?FILTERS
      C06F08H     filter_disp_sense                LABEL ---  FCODE   ?PR?FILTERS_EBSSENSORS
      C05C80H     filter_motor_m_angle             LABEL ---  FCODE   ?PR?FILTERS
      C06EC6H     filter_pres_sense                LABEL ---  FCODE   ?PR?FILTERS_EBSSENSORS
      C05CCEH     filter_s_sense                   LABEL ---  FCODE   ?PR?FILTERS
      C03FE8H     fmemcpy                          LABEL ---  FCODE   ?PR?FMEMCPY
      E0036BH     frame_phase                      VAR   ---  NDATA0  ?ND0?SENT_DECODE
      E003C3H     free_cnt0                        VAR   ---  NDATA0  ?ND0?TASK_MAN
      E003C2H     free_cnt1                        VAR   ---  NDATA0  ?ND0?TASK_MAN
      00AA02H     g_ad0                            VAR   ---  FDATA0  ?FD0?ADC
      00A9E2H     g_ad1                            VAR   ---  FDATA0  ?FD0?ADC
      E00386H     g_angle_eiq                      VAR   ---  NDATA0  ?ND0?MOTOR_PMSM
      E0038CH     g_angle_offset                   VAR   ---  NDATA0  ?ND0?MOTOR_PMSM
      E0038AH     g_angle_sensor                   VAR   ---  NDATA0  ?ND0?MOTOR_PMSM
      E00404H     g_brake_pedal_pos_can_uw         VAR   ---  NDATA0  ?ND0?CTRL_IF
      E002EFH     g_can_status                     VAR   ---  NDATA0  ?ND0?XC2K_CAN
      00AAA8H     g_canbuf                         VAR   ---  FDATA0  ?FD0?CAN_TEST
      E003CAH     g_canid                          VAR   ---  NDATA0  ?ND0?CAN_TEST
      E003D2H     g_canlen                         VAR   ---  NDATA0  ?ND0?CAN_TEST
      E003A2H     g_cto_id                         VAR   ---  NDATA0  ?ND0?HICAN
      E003AEH     g_ctrl_test_timer_uw             VAR   ---  NDATA0  ?ND0?CTRL
      E003D0H     g_ctrl_timeout                   VAR   ---  NDATA0  ?ND0?CAN_TEST
L166 LINKER/LOCATER V5.29.2.0                                                         12/14/2020  10:56:44  PAGE 12


      E003DAH     g_day                            VAR   ---  NDATA0  ?ND0?RTC
      E003A4H     g_diag_resp_id                   VAR   ---  NDATA0  ?ND0?HICAN
      E003F2H     g_diag_stat                      VAR   ---  NDATA0  ?ND0?DIAG_HW
      E003A6H     g_diag_tester_id                 VAR   ---  NDATA0  ?ND0?HICAN
      E002EEH     g_dir_ub                         VAR   ---  NDATA0  ?ND0?MOTOR_BLDC
      E00376H     g_disp_sense_val                 VAR   ---  NDATA0  ?ND0?FILTERS_EBSSENSORS
      E003E0H     g_disp_value_sent                VAR   ---  NDATA0  ?ND0?CCU2_CCU6
      E003A0H     g_dto_id                         VAR   ---  NDATA0  ?ND0?HICAN
      E00396H     g_duty0                          VAR   ---  NDATA0  ?ND0?SVPWM
      E00394H     g_duty1                          VAR   ---  NDATA0  ?ND0?SVPWM
      E00392H     g_duty2                          VAR   ---  NDATA0  ?ND0?SVPWM
      E0039CH     g_duty_A                         VAR   ---  NDATA0  ?ND0?SVPWM
      E0039AH     g_duty_B                         VAR   ---  NDATA0  ?ND0?SVPWM
      E00398H     g_duty_C                         VAR   ---  NDATA0  ?ND0?SVPWM
      E002D8H     g_duty_max                       VAR   ---  NDATA0  ?ND0?MOTOR_BLDC
      E002CAH     g_duty_uw                        VAR   ---  NDATA0  ?ND0?MOTOR_BLDC
      E003D8H     g_hour                           VAR   ---  NDATA0  ?ND0?RTC
      E003ACH     g_mc_pressure                    VAR   ---  NDATA0  ?ND0?CTRL
      E003D6H     g_min                            VAR   ---  NDATA0  ?ND0?RTC
      E002CCH     g_mot_speed_sw                   VAR   ---  NDATA0  ?ND0?MOTOR_BLDC
      E002ECH     g_motor_type_ub                  VAR   ---  NDATA0  ?ND0?MOTOR_BLDC
      E003D4H     g_ms_uw                          VAR   ---  NDATA0  ?ND0?RTC
      E00357H     g_msg_data_len                   VAR   ---  NDATA0  ?ND0?PROT_IMP
      E0035AH     g_msg_error                      VAR   ---  NDATA0  ?ND0?PROT_IMP
      E00356H     g_msg_len                        VAR   ---  NDATA0  ?ND0?PROT_IMP
      E00350H     g_msg_offset                     VAR   ---  NDATA0  ?ND0?PROT_IMP
      E00400H     g_overflow_10ms_ub               VAR   ---  NDATA0  ?ND0?HW
      E003FFH     g_overflow_5ms_ub                VAR   ---  NDATA0  ?ND0?HW
      00A8E2H     g_pid_pres_ctrl                  VAR   ---  FDATA0  ?FD0?CTRL
      E002E2H     g_pos                            VAR   ---  NDATA0  ?ND0?MOTOR_BLDC
      E002D2H     g_pos_offset_bldc_uw             VAR   ---  NDATA0  ?ND0?MOTOR_BLDC
      E002C2H     g_pos_offset_pmsm_uw             VAR   ---  NDATA0  ?ND0?MOTOR_BLDC
      E002C4H     g_posx_uw                        VAR   ---  NDATA0  ?ND0?MOTOR_BLDC
      E00374H     g_pres_sense_val                 VAR   ---  NDATA0  ?ND0?FILTERS_EBSSENSORS
      00AA22H     g_pwm_ex_duty_uw                 VAR   ---  FDATA0  ?FD0?CCU2_CCU6
      00AA52H     g_pwm_ex_period_uw               VAR   ---  FDATA0  ?FD0?CCU2_CCU6
      00AA46H     g_pwm_ex_timestamp               VAR   ---  FDATA0  ?FD0?CCU2_CCU6
      00AA2EH     g_pwm_ex_timestamp0              VAR   ---  FDATA0  ?FD0?CCU2_CCU6
      00AA3AH     g_pwm_ex_timestamp0_r            VAR   ---  FDATA0  ?FD0?CCU2_CCU6
      E0037AH     g_resolver_pos0_uw               VAR   ---  NDATA0  ?ND0?RESOLVER_AD2S
      E00380H     g_resolver_pos_uw                VAR   ---  NDATA0  ?ND0?RESOLVER_AD2S
      E0034AH     g_seed                           VAR   ---  NDATA0  ?ND0?PROT_IMP
      C001BCH     g_sin_value                      VAR   ---  FCONST  ?FC?SIN_DATA
      E002DEH     g_slot_bits                      VAR   ---  NDATA0  ?ND0?MOTOR_BLDC
      E002D0H     g_slot_bits0                     VAR   ---  NDATA0  ?ND0?MOTOR_BLDC
      E002DAH     g_slot_idx                       VAR   ---  NDATA0  ?ND0?MOTOR_BLDC
      E002C0H     g_slot_idx_ss                    VAR   ---  NDATA0  ?ND0?MOTOR_BLDC
      E002C8H     g_stall_speed                    VAR   ---  NDATA0  ?ND0?MOTOR_BLDC
      E002BEH     g_stall_time                     VAR   ---  NDATA0  ?ND0?MOTOR_BLDC
      E002D4H     g_step_mode_ub                   VAR   ---  NDATA0  ?ND0?MOTOR_BLDC
      E00370H     g_sum_disp_sense                 VAR   ---  NDATA0  ?ND0?FILTERS_EBSSENSORS
      E0036CH     g_sum_pres_sense                 VAR   ---  NDATA0  ?ND0?FILTERS_EBSSENSORS
      E0038EH     g_sum_vqs_sl                     VAR   ---  NDATA0  ?ND0?MOTOR_PMSM
      E003F6H     g_sys_dtc_uw                     VAR   ---  NDATA0  ?ND0?MCU1_IMP
      E003CCH     g_test_u32                       VAR   ---  NDATA0  ?ND0?CAN_TEST
      E00362H     g_tick_period                    VAR   ---  NDATA0  ?ND0?SENT_DECODE
      E002E6H     g_time_inh                       VAR   ---  NDATA0  ?ND0?MOTOR_BLDC
L166 LINKER/LOCATER V5.29.2.0                                                         12/14/2020  10:56:44  PAGE 13


      E002DCH     g_time_run                       VAR   ---  NDATA0  ?ND0?MOTOR_BLDC
      E002CEH     g_timeout                        VAR   ---  NDATA0  ?ND0?MOTOR_BLDC
      E002EDH     g_timer_250us                    VAR   ---  NDATA0  ?ND0?MOTOR_BLDC
      E002E8H     g_timer_calc_speed_ub            VAR   ---  NDATA0  ?ND0?MOTOR_BLDC
      E0035BH     g_tmp                            VAR   ---  NDATA0  ?ND0?PROT_IMP
      E00352H     g_tmp0                           VAR   ---  NDATA0  ?ND0?PROT_IMP
      00AA96H     g_tmpbuf                         VAR   ---  FDATA0  ?FD0?PROT_IMP
      E0037CH     g_total_angle0_sl                VAR   ---  NDATA0  ?ND0?RESOLVER_AD2S
      E00382H     g_total_angle_sl                 VAR   ---  NDATA0  ?ND0?RESOLVER_AD2S
      E002EAH     g_turns                          VAR   ---  NDATA0  ?ND0?MOTOR_BLDC
      E002E0H     g_turns_cmd                      VAR   ---  NDATA0  ?ND0?MOTOR_BLDC
      E00358H     g_wheelspeed_test_status         VAR   ---  NDATA0  ?ND0?PROT_IMP
      C0010CH     g_ypara                          VAR   ---  FCONST  ?FC?YPARA
      E00355H     gact_task                        VAR   ---  NDATA0  ?ND0?PROT_IMP
      E00351H     gact_task_stat                   VAR   ---  NDATA0  ?ND0?PROT_IMP
      E0034EH     gact_task_tout                   VAR   ---  NDATA0  ?ND0?PROT_IMP
      E00336H     gdtc_buf                         VAR   ---  NDATA0  ?ND0?DTC_MAN
      E00346H     gdtc_num                         VAR   ---  NDATA0  ?ND0?DTC_MAN
      E00349H     gdtc_num_active                  VAR   ---  NDATA0  ?ND0?DTC_MAN
      00A842H     gee_buf                          VAR   ---  FDATA0  ?FD0?DTC_MAN
      E00348H     gee_cmd                          VAR   ---  NDATA0  ?ND0?DTC_MAN
      E00345H     gee_cmd_bak                      VAR   ---  NDATA0  ?ND0?DTC_MAN
      00A8C2H     gee_dat                          VAR   ---  FDATA0  ?FD0?DTC_MAN
      E0033AH     gee_dirty                        VAR   ---  NDATA0  ?ND0?DTC_MAN
      E00334H     gee_dirty1                       VAR   ---  NDATA0  ?ND0?DTC_MAN
      E00344H     gee_dirty2                       VAR   ---  NDATA0  ?ND0?DTC_MAN
      E00347H     gee_stat                         VAR   ---  NDATA0  ?ND0?DTC_MAN
      C05C4CH     get_ad_value                     LABEL ---  FCODE   ?PR?ADC
      C06164H     get_bat_volt                     LABEL ---  FCODE   ?PR?CTRL_IF
      C0601CH     get_brake_pedal_pos0             LABEL ---  FCODE   ?PR?CTRL_IF
      C06024H     get_brake_pedal_pos1             LABEL ---  FCODE   ?PR?CTRL_IF
      C0602CH     get_brake_pedal_pos_can          LABEL ---  FCODE   ?PR?CTRL_IF
      C0619AH     get_brk_pedal_state              LABEL ---  FCODE   ?PR?CTRL_IF
      C061A6H     get_brk_pedal_volt               LABEL ---  FCODE   ?PR?CTRL_IF
      C02DB6H     get_can_bus_off                  LABEL ---  FCODE   ?PR?XC2K_CAN
      C061B0H     get_current                      LABEL ---  FCODE   ?PR?CTRL_IF
      C06184H     get_disp_sensor0                 LABEL ---  FCODE   ?PR?CTRL_IF
      C0618CH     get_ign_volt                     LABEL ---  FCODE   ?PR?CTRL_IF
      C0617CH     get_mc_pressure                  LABEL ---  FCODE   ?PR?CTRL_IF
      C06032H     get_mc_pressure0                 LABEL ---  FCODE   ?PR?CTRL_IF
      C0603AH     get_mc_pressure1                 LABEL ---  FCODE   ?PR?CTRL_IF
      C06050H     get_motor_angle_e                LABEL ---  FCODE   ?PR?CTRL_IF
      C0604AH     get_motor_angle_m                LABEL ---  FCODE   ?PR?CTRL_IF
      C06074H     get_motor_speed                  LABEL ---  FCODE   ?PR?CTRL_IF
      C06056H     get_motor_total_angle            LABEL ---  FCODE   ?PR?CTRL_IF
      C070F0H     get_msg_len                      LABEL ---  FCODE   ?PR?PROT_IMP
      C070F4H     get_sid_offset                   LABEL ---  FCODE   ?PR?PROT_IMP
      C06042H     get_steer_torque0                LABEL ---  FCODE   ?PR?CTRL_IF
      C06046H     get_steer_torque1                LABEL ---  FCODE   ?PR?CTRL_IF
      C061DEH     get_temp_sensor_mosfet           LABEL ---  FCODE   ?PR?CTRL_IF
      C061D6H     get_temp_sensor_pcb              LABEL ---  FCODE   ?PR?CTRL_IF
      E003C8H     gmisc_task                       VAR   ---  NDATA0  ?ND0?TASK_MAN
      00AA72H     gmisc_task_option                VAR   ---  FDATA0  ?FD0?TASK_MAN
      E003C6H     gmisc_task_stat                  VAR   ---  NDATA0  ?ND0?TASK_MAN
      E003C0H     gmisc_task_tout                  VAR   ---  NDATA0  ?ND0?TASK_MAN
      E0033CH     gpara_buf                        VAR   ---  NDATA0  ?ND0?DTC_MAN
      C06268H     gpio_setting                     LABEL ---  FCODE   ?PR?HW
L166 LINKER/LOCATER V5.29.2.0                                                         12/14/2020  10:56:44  PAGE 14


      C05642H     hican_10ms_hook                  LABEL ---  FCODE   ?PR?HICAN
      C05644H     hican_1ms_hook                   LABEL ---  FCODE   ?PR?HICAN
      C0544EH     hican_init                       LABEL ---  FCODE   ?PR?HICAN
      C06212H     hw_init                          LABEL ---  FCODE   ?PR?HW
      C07064H     ign_add                          LABEL ---  FCODE   ?PR?DTC_MAN
      C039FAH     isr_100us_timer_hook_user        LABEL ---  FCODE   ?PR?MOTOR_BLDC
      C05EACH     isr_10ms_hook_user               LABEL ---  FCODE   ?PR?CTRL
      C05EB0H     isr_1ms_hook_user                LABEL ---  FCODE   ?PR?CTRL
      C05E54H     isr_5ms_hook_user                LABEL ---  FCODE   ?PR?CTRL
      C02D68H     isr_can_error                    LABEL ---  FCODE   ?PR?XC2K_CAN
      C02D0EH     isr_can_status                   LABEL ---  FCODE   ?PR?XC2K_CAN
      C02B84H     isr_can_txrx0                    LABEL ---  FCODE   ?PR?XC2K_CAN
      C04A80H     isr_cc20                         LABEL ---  FCODE   ?PR?CCU2_CCU6
      C04B5CH     isr_cc21                         LABEL ---  FCODE   ?PR?CCU2_CCU6
      C04C38H     isr_cc22                         LABEL ---  FCODE   ?PR?CCU2_CCU6
      C04D0EH     isr_cc23                         LABEL ---  FCODE   ?PR?CCU2_CCU6
      C04DEAH     isr_cc26                         LABEL ---  FCODE   ?PR?CCU2_CCU6
      C04DECH     isr_cc27                         LABEL ---  FCODE   ?PR?CCU2_CCU6
      C0712CH     isr_main_timer                   LABEL ---  FCODE   ?PR?MAIN_TASK
      C06FF8H     isr_rtc                          LABEL ---  FCODE   ?PR?RTC
      C06BB0H     isr_systick_timer                LABEL ---  FCODE   ?PR?TIMER
      C06C1EH     isr_timer_hook                   LABEL ---  FCODE   ?PR?TIMER
      C06C52H     isr_timer_hook_user              LABEL ---  FCODE   ?PR?TIMER
      C04013H     kXcpMainVersion                  VAR   ---  NCONST  ?NC?XCPBASIC
      C04011H     kXcpReleaseVersion               VAR   ---  NCONST  ?NC?XCPBASIC
      00AAB0H     kXcpStationId                    VAR   ---  FDATA0  ?FD0?_XCP_APPL
      C04012H     kXcpSubVersion                   VAR   ---  NCONST  ?NC?XCPBASIC
      C0639CH     keep_alive                       LABEL ---  FCODE   ?PR?HW
      C000CEH     lib_dtc_diag_version             VAR   ---  FCONST  ?FC?LIB_DTC_DIAG_VERSION
      C000B7H     lib_eol_diag_version             VAR   ---  FCONST  ?FC?LIB_EOL_DIAG_VERSION
      C000A0H     lib_hw_driver_version            VAR   ---  FCONST  ?FC?LIB_HW_DRIVER_VERSION
      C06C60H     main                             LABEL ---  FCODE   ?PR?MAIN
      C0711AH     main_task_init                   LABEL ---  FCODE   ?PR?MAIN_TASK
      C06E00H     mcu1_imp_init                    LABEL ---  FCODE   ?PR?MCU1_IMP
      C0713CH     mcu2_imp_init                    LABEL ---  FCODE   ?PR?MCU2_IMP
      E003F9H     mcu2_status                      VAR   ---  NDATA0  ?ND0?MCU1_IMP
      C061F8H     mcu_lock                         LABEL ---  FCODE   ?PR?HW
      C061E4H     mcu_unlock                       LABEL ---  FCODE   ?PR?HW
      00A9C4H     mcumsg1                          VAR   ---  FDATA0  ?FD0?MCU1_IMP
      00A9ABH     mcumsg2                          VAR   ---  FDATA0  ?FD0?MCU1_IMP
      00A992H     mcumsgdat                        VAR   ---  FDATA0  ?FD0?MCU1_IMP
      C000E6H     memcpy                           LABEL ---  FCODE   ?PR?MEMCPY
      E002F4H     motor_m_angle                    VAR   ---  NDATA0  ?ND0?FILTERS
      E003B2H     motor_offset                     VAR   ---  NDATA0  ?ND0?CTRL
      C02FC2H     motor_sector_cal                 LABEL ---  FCODE   ?PR?SVPWM
      C030E8H     motor_sector_switch_cal          LABEL ---  FCODE   ?PR?SVPWM
      E00302H     phase_currentA                   VAR   ---  NDATA0  ?ND0?FILTERS
      E00300H     phase_currentB                   VAR   ---  NDATA0  ?ND0?FILTERS
      E002FEH     phase_currentC                   VAR   ---  NDATA0  ?ND0?FILTERS
      E002FCH     phase_currentM                   VAR   ---  NDATA0  ?ND0?FILTERS
      C0633CH     pll_setting                      LABEL ---  FCODE   ?PR?HW
      E002B4H     pressure_state                   VAR   ---  NDATA0  ?ND0?EBOOSTER_CTRL
      E0025AH     pressure_steady                  VAR   ---  NDATA0  ?ND0?EBOOSTER_CTRL
      E00353H     prod_mode                        VAR   ---  NDATA0  ?ND0?PROT_IMP
      E003F0H     protect_pre                      VAR   ---  NDATA0  ?ND0?MOTORDRIVE
      C0699AH     pwm_init                         LABEL ---  FCODE   ?PR?PWM
      C069CEH     pwm_setduty                      LABEL ---  FCODE   ?PR?PWM
L166 LINKER/LOCATER V5.29.2.0                                                         12/14/2020  10:56:44  PAGE 15


      C06146H     read_parameters                  LABEL ---  FCODE   ?PR?CTRL_IF
      C04DEEH     resolver_ad2s_init               LABEL ---  FCODE   ?PR?RESOLVER_AD2S
      C04EB4H     resolver_ad2s_rd_cfg             LABEL ---  FCODE   ?PR?RESOLVER_AD2S
      C04F54H     resolver_ad2s_read               LABEL ---  FCODE   ?PR?RESOLVER_AD2S
      C05008H     resolver_ad2s_read_pos           LABEL ---  FCODE   ?PR?RESOLVER_AD2S
      C04E06H     resolver_ad2s_wr_cfg             LABEL ---  FCODE   ?PR?RESOLVER_AD2S
      E00354H     routine_id                       VAR   ---  NDATA0  ?ND0?PROT_IMP
      C06FB4H     rtc_setting                      LABEL ---  FCODE   ?PR?RTC
      E002F0H     s_sense                          VAR   ---  NDATA0  ?ND0?FILTERS
      C06142H     save_parameters                  LABEL ---  FCODE   ?PR?CTRL_IF
      E0035CH     security_mode                    VAR   ---  NDATA0  ?ND0?PROT_IMP
      00AAC0H     sent_data                        VAR   ---  FDATA0  ?FD0?SENT_DECODE
      E0036AH     sent_data_idx                    VAR   ---  NDATA0  ?ND0?SENT_DECODE
      C05760H     sent_decode                      LABEL ---  FCODE   ?PR?SENT_DECODE
      C02D98H     set_can_on                       LABEL ---  FCODE   ?PR?XC2K_CAN
      C060AAH     set_motor_ctrl_enable            LABEL ---  FCODE   ?PR?CTRL_IF
      C06096H     set_motor_dir                    LABEL ---  FCODE   ?PR?CTRL_IF
      C0614AH     set_motor_offset                 LABEL ---  FCODE   ?PR?CTRL_IF
      C0607AH     set_motor_speed                  LABEL ---  FCODE   ?PR?CTRL_IF
      C0607EH     set_motor_torque                 LABEL ---  FCODE   ?PR?CTRL_IF
      C06082H     set_motor_volt                   LABEL ---  FCODE   ?PR?CTRL_IF
      C06A40H     set_phase_on                     LABEL ---  FCODE   ?PR?PWM
      C066E0H     spi_eeprom_setting               LABEL ---  FCODE   ?PR?SSC
      C067B2H     spi_eeprom_trans                 LABEL ---  FCODE   ?PR?SSC
      C066C8H     spi_mcu2_putc                    LABEL ---  FCODE   ?PR?SSC
      C066C2H     spi_mcu2_setting                 LABEL ---  FCODE   ?PR?SSC
      C066C4H     spi_mcu2_trans                   LABEL ---  FCODE   ?PR?SSC
      C066BCH     spi_setting                      LABEL ---  FCODE   ?PR?SSC
      C06624H     spi_tle9180d_31qk_putc           LABEL ---  FCODE   ?PR?TLE9180D_31QK
      C0663CH     spi_tle9180d_31qk_trans          LABEL ---  FCODE   ?PR?TLE9180D_31QK
      E00274H     star_state                       VAR   ---  NDATA0  ?ND0?EBOOSTER_CTRL
      E00298H     state                            VAR   ---  NDATA0  ?ND0?EBOOSTER_CTRL
      E0026AH     state_pre                        VAR   ---  NDATA0  ?ND0?EBOOSTER_CTRL
      E00286H     state_time                       VAR   ---  NDATA0  ?ND0?EBOOSTER_CTRL
      E0026CH     stop_state                       VAR   ---  NDATA0  ?ND0?EBOOSTER_CTRL
      C07156H     submit_task                      LABEL ---  FCODE   ?PR?MCU2_IMP
      E00316H     sum_currentA                     VAR   ---  NDATA0  ?ND0?FILTERS
      E00314H     sum_currentB                     VAR   ---  NDATA0  ?ND0?FILTERS
      E00312H     sum_currentC                     VAR   ---  NDATA0  ?ND0?FILTERS
      E00310H     sum_currentD                     VAR   ---  NDATA0  ?ND0?FILTERS
      E0030EH     sum_currentM                     VAR   ---  NDATA0  ?ND0?FILTERS
      E0030CH     sum_currentQ                     VAR   ---  NDATA0  ?ND0?FILTERS
      E0025CH     sum_error                        VAR   ---  NDATA0  ?ND0?EBOOSTER_CTRL
      E00308H     sum_motor_m_angle                VAR   ---  NDATA0  ?ND0?FILTERS
      E00304H     sum_s_sense                      VAR   ---  NDATA0  ?ND0?FILTERS
      E003F3H     sys_health                       VAR   ---  NDATA0  ?ND0?DIAG_HW
      C06EC4H     system_dtc_handling              LABEL ---  FCODE   ?PR?MCU1_IMP
      C06E32H     system_quick_diag                LABEL ---  FCODE   ?PR?MCU1_IMP
      E003C7H     task_ctrl_valid                  VAR   ---  NDATA0  ?ND0?TASK_MAN
      E003C5H     task_stat                        VAR   ---  NDATA0  ?ND0?TASK_MAN
      E003C9H     task_sub_type                    VAR   ---  NDATA0  ?ND0?TASK_MAN
      E003C4H     task_type                        VAR   ---  NDATA0  ?ND0?TASK_MAN
      E00270H     test                             VAR   ---  NDATA0  ?ND0?EBOOSTER_CTRL
      E0024CH     test1                            VAR   ---  NDATA0  ?ND0?EBOOSTER_CTRL
      E00248H     test2                            VAR   ---  NDATA0  ?ND0?EBOOSTER_CTRL
      E003B0H     test_dir                         VAR   ---  NDATA0  ?ND0?CTRL
      E003E2H     timer7_val                       VAR   ---  NDATA0  ?ND0?CCU2_CCU6
L166 LINKER/LOCATER V5.29.2.0                                                         12/14/2020  10:56:44  PAGE 16


      C07116H     timer_hook_50ms                  LABEL ---  FCODE   ?PR?PROT_IMP
      C06B8CH     timer_setting                    LABEL ---  FCODE   ?PR?TIMER
      E00366H     timer_val                        VAR   ---  NDATA0  ?ND0?SENT_DECODE
      E0035EH     timer_val0                       VAR   ---  NDATA0  ?ND0?SENT_DECODE
      C0653CH     tle9180d_31qk_init               LABEL ---  FCODE   ?PR?TLE9180D_31QK
      E003DCH     tmpu32                           VAR   ---  NDATA0  ?ND0?CCU2_CCU6
      C0715EH     trans_actuator_num               LABEL ---  FCODE   ?PR?TASK_MAN
      C05EF0H     transmit_can_data_10ms           LABEL ---  FCODE   ?PR?CTRL
      C0601AH     transmit_can_data_1ms            LABEL ---  FCODE   ?PR?CTRL
      C07162H     update_comp_monitor              LABEL ---  FCODE   ?PR?TASK_MAN
      C06996H     vqs_cmd_filter                   LABEL ---  FCODE   ?PR?MOTOR_PMSM
      E0039EH     wgy                              VAR   ---  NDATA0  ?ND0?HICAN
      00A000H     xcp                              VAR   ---  FDATA0  ?FD0?XCPBASIC
      E00402H     xcpResource                      VAR   ---  NDATA0  ?ND0?_XCP_APPL
      C00088H     xdtc                             VAR   ---  FCONST  ?FC?DTC_TABLE



SYMBOL TABLE OF MODULE:  .\objs\Mcu2K_Test (?C_STARTUP)

      VALUE       TYPE      REP       LENGTH  TGR   SYMBOL NAME
      =========================================================
      C00FD0H     PUBLIC    LABEL     ---     ---   ?C_STARTUP
      000000H     PUBLIC    CONST     ---     ---   ?L?VECSC
      E00000H     PUBLIC    VAR       ---     ---   ?C_USRSTKBOT
      00F600H     PUBLIC    VAR       ---     ---   ?C_SYSSTKBOT
      00F800H     PUBLIC    VAR       ---     ---   ?C_SYSSTKTOP
      000000H     GLOBAL    INTNO     ---     ---   RESET
      000000H     SYMBOL    RBANK     ---     ---   ?C_MAINREGISTERS
      E00200H     SYMBOL    VAR       ---     ---   ?C_USERSTKTOP
      E00220H     SYMBOL    VAR       ---     ---   ?C_USERSTKTOP1
      E00240H     SYMBOL    VAR       ---     ---   ?C_USERSTKTOP2
      E00200H     SYMBOL    VAR       ---     ---   ?C_USRSTKBOT1
      E00220H     SYMBOL    VAR       ---     ---   ?C_USRSTKBOT2
      00FE10H     SYMBOL    SFR       ---     ---   CP
      00FE00H     SYMBOL    SFR       ---     ---   DPP0
      00FE02H     SYMBOL    SFR       ---     ---   DPP1
      00FE04H     SYMBOL    SFR       ---     ---   DPP2
      00FE06H     SYMBOL    SFR       ---     ---   DPP3
      00F1B4H     SYMBOL    ESFR      ---     ---   HPOSCCON
      000400H     SYMBOL    CONST     ---     ---   KB
      00F1B8H     SYMBOL    ESFR      ---     ---   PLLCON0
      00F1BAH     SYMBOL    ESFR      ---     ---   PLLCON1
      00F1BCH     SYMBOL    ESFR      ---     ---   PLLCON2
      00F1BEH     SYMBOL    ESFR      ---     ---   PLLCON3
      00F0BCH     SYMBOL    ESFR      ---     ---   PLLSTAT
      00FF10H     SYMBOL    SFR       ---     ---   PSW
      00FE12H     SYMBOL    SFR       ---     ---   SP
      00FF0CH     SYMBOL    SFR       ---     ---   SPSEG
      000200H     SYMBOL    CONST     ---     ---   SSTSZ
      00FE14H     SYMBOL    SFR       ---     ---   STKOV
      00FE16H     SYMBOL    SFR       ---     ---   STKUN
      000020H     SYMBOL    CONST     ---     ---   UST1SZ
      000020H     SYMBOL    CONST     ---     ---   UST2SZ
      000200H     SYMBOL    CONST     ---     ---   USTSZ
      00F1AEH     SYMBOL    ESFR      ---     ---   WUOSCCON
      000000H     SYMBOL    CONST     ---     ---   _AOSCSEL
L166 LINKER/LOCATER V5.29.2.0                                                         12/14/2020  10:56:44  PAGE 17


      00F600H     SYMBOL    VAR       ---     ---   _BOS
      000000H     SYMBOL    CONST     ---     ---   _DIS
      000000H     SYMBOL    CONST     ---     ---   _FREQSEL
      000000H     SYMBOL    CONST     ---     ---   _HPOSCCON
      000000H     SYMBOL    CONST     ---     ---   _HP_EMCLKEN
      000000H     SYMBOL    CONST     ---     ---   _HP_EMFINDISEN
      000001H     SYMBOL    CONST     ---     ---   _K1ACK
      000001H     SYMBOL    CONST     ---     ---   _K1DIV
      000001H     SYMBOL    CONST     ---     ---   _K2DIV
      000000H     SYMBOL    CONST     ---     ---   _MODE
      000013H     SYMBOL    CONST     ---     ---   _NDIV
      000000H     SYMBOL    CONST     ---     ---   _OSCSEL
      000000H     SYMBOL    CONST     ---     ---   _OSCWDTRST
      000000H     SYMBOL    CONST     ---     ---   _PDIV
      009305H     SYMBOL    CONST     ---     ---   _PLLCON0
      008000H     SYMBOL    CONST     ---     ---   _PLLCON1
      008001H     SYMBOL    CONST     ---     ---   _PLLCON2
      008001H     SYMBOL    CONST     ---     ---   _PLLCON3
      000000H     SYMBOL    CONST     ---     ---   _PLLPWD
      000000H     SYMBOL    CONST     ---     ---   _PLL_EMCLKEN
      000000H     SYMBOL    CONST     ---     ---   _PLL_EMFINDISEN
      000000H     SYMBOL    CONST     ---     ---   _PWSEL
      000000H     SYMBOL    CONST     ---     ---   _SHBY
      00F800H     SYMBOL    VAR       ---     ---   _TOS
      000000H     SYMBOL    CONST     ---     ---   _VCOBY
      000000H     SYMBOL    CONST     ---     ---   _VCOPWD
      000001H     SYMBOL    CONST     ---     ---   _VCOSEL
      000000H     SYMBOL    CONST     ---     ---   _VECSC
      000000H     SYMBOL    CONST     ---     ---   _WUOSCCON
      000000H     SYMBOL    CONST     ---     ---   _X1DEN

      C00FD0H     BLOCK     LVL=0     0184H   ---   ?C_RESET
      C00FD0H     LINE      ---       ---     ---   #1297
      C00FD4H     LINE      ---       ---     ---   #1460
      C00FD6H     LINE      ---       ---     ---   #1461
      C00FDAH     LINE      ---       ---     ---   #1467
      C00FDCH     LINE      ---       ---     ---   #1468
      C00FE0H     LINE      ---       ---     ---   #1480
      C00FE2H     LINE      ---       ---     ---   #1481
      C00FE6H     LINE      ---       ---     ---   #1484
      C00FE8H     LINE      ---       ---     ---   #1485
      C00FECH     LINE      ---       ---     ---   #1486
      C00FEEH     LINE      ---       ---     ---   #1487
      C00FF0H     LINE      ---       ---     ---   #1488
      C00FF4H     LINE      ---       ---     ---   #1489
      C00FF8H     LINE      ---       ---     ---   #1490
      C00FFAH     LINE      ---       ---     ---   #1495
      C00FFCH     LINE      ---       ---     ---   #1496
      C01000H     LINE      ---       ---     ---   #1500
      C01002H     LINE      ---       ---     ---   #1501
      C01006H     LINE      ---       ---     ---   #1505
      C01008H     LINE      ---       ---     ---   #1506
      C0100CH     LINE      ---       ---     ---   #1512
      C0100EH     LINE      ---       ---     ---   #1513
      C01012H     LINE      ---       ---     ---   #1515
      C01014H     LINE      ---       ---     ---   #1516
      C01018H     LINE      ---       ---     ---   #1517
L166 LINKER/LOCATER V5.29.2.0                                                         12/14/2020  10:56:44  PAGE 18


      C0101CH     LINE      ---       ---     ---   #1519
      C0101EH     LINE      ---       ---     ---   #1520
      C01022H     LINE      ---       ---     ---   #1522
      C01024H     LINE      ---       ---     ---   #1523
      C01028H     LINE      ---       ---     ---   #1524
      C0102CH     LINE      ---       ---     ---   #1531
      C01030H     LINE      ---       ---     ---   #1532
      C01034H     LINE      ---       ---     ---   #1533
      C01038H     LINE      ---       ---     ---   #1534
      C0103CH     LINE      ---       ---     ---   #1543
      C01040H     LINE      ---       ---     ---   #1545
      C01044H     LINE      ---       ---     ---   #1546
      C01048H     LINE      ---       ---     ---   #1550
      C0104CH     LINE      ---       ---     ---   #1556
      C01050H     LINE      ---       ---     ---   #1557
      C01054H     LINE      ---       ---     ---   #1561
      C01058H     LINE      ---       ---     ---   #1562
      C0105CH     LINE      ---       ---     ---   #1566
      C01060H     LINE      ---       ---     ---   #1569
      C01064H     LINE      ---       ---     ---   #1621
      C01068H     LINE      ---       ---     ---   #1622
      C0106CH     LINE      ---       ---     ---   #1623
      C0106EH     LINE      ---       ---     ---   #1624
      C01070H     LINE      ---       ---     ---   #1625
      C01072H     LINE      ---       ---     ---   #1631
      C01074H     LINE      ---       ---     ---   #1632
      C01076H     LINE      ---       ---     ---   #1633
      C01078H     LINE      ---       ---     ---   #1634
      C0107AH     LINE      ---       ---     ---   #1635
      C0107CH     LINE      ---       ---     ---   #1636
      C0107EH     LINE      ---       ---     ---   #1637
      C01080H     LINE      ---       ---     ---   #1638
      C01084H     LINE      ---       ---     ---   #1639
      C01088H     LINE      ---       ---     ---   #1641
      C0108AH     LINE      ---       ---     ---   #1642
      C0108CH     LINE      ---       ---     ---   #1643
      C0108EH     LINE      ---       ---     ---   #1644
      C01092H     LINE      ---       ---     ---   #1645
      C01094H     LINE      ---       ---     ---   #1646
      C01096H     LINE      ---       ---     ---   #1647
      C01098H     LINE      ---       ---     ---   #1648
      C0109AH     LINE      ---       ---     ---   #1649
      C0109CH     LINE      ---       ---     ---   #1650
      C0109EH     LINE      ---       ---     ---   #1651
      C010A0H     LINE      ---       ---     ---   #1652
      C010A2H     LINE      ---       ---     ---   #1653
      C010A4H     LINE      ---       ---     ---   #1655
      C010A6H     LINE      ---       ---     ---   #1656
      C010A8H     LINE      ---       ---     ---   #1661
      C010AAH     LINE      ---       ---     ---   #1662
      C010ACH     LINE      ---       ---     ---   #1663
      C010AEH     LINE      ---       ---     ---   #1664
      C010B0H     LINE      ---       ---     ---   #1665
      C010B4H     LINE      ---       ---     ---   #1666
      C010B6H     LINE      ---       ---     ---   #1667
      C010B8H     LINE      ---       ---     ---   #1668
      C010BAH     LINE      ---       ---     ---   #1674
L166 LINKER/LOCATER V5.29.2.0                                                         12/14/2020  10:56:44  PAGE 19


      C010BCH     LINE      ---       ---     ---   #1675
      C010BEH     LINE      ---       ---     ---   #1676
      C010C0H     LINE      ---       ---     ---   #1677
      C010C2H     LINE      ---       ---     ---   #1678
      C010C4H     LINE      ---       ---     ---   #1739
      C010C8H     LINE      ---       ---     ---   #1740
      C010CCH     LINE      ---       ---     ---   #1746
      C010D0H     LINE      ---       ---     ---   #1747
      C010D2H     LINE      ---       ---     ---   #1748
      C010D4H     LINE      ---       ---     ---   #1749
      C010D6H     LINE      ---       ---     ---   #1750
      C010D8H     LINE      ---       ---     ---   #1751
      C010DAH     LINE      ---       ---     ---   #1752
      C010DEH     LINE      ---       ---     ---   #1753
      C010E0H     LINE      ---       ---     ---   #1754
      C010E4H     LINE      ---       ---     ---   #1755
      C010E6H     LINE      ---       ---     ---   #1756
      C010E8H     LINE      ---       ---     ---   #1757
      C010EAH     LINE      ---       ---     ---   #1758
      C010ECH     LINE      ---       ---     ---   #1759
      C010EEH     LINE      ---       ---     ---   #1760
      C010F0H     LINE      ---       ---     ---   #1761
      C010F2H     LINE      ---       ---     ---   #1762
      C010F4H     LINE      ---       ---     ---   #1763
      C010F6H     LINE      ---       ---     ---   #1764
      C010F8H     LINE      ---       ---     ---   #1765
      C010FCH     LINE      ---       ---     ---   #1766
      C01100H     LINE      ---       ---     ---   #1767
      C01102H     LINE      ---       ---     ---   #1768
      C01104H     LINE      ---       ---     ---   #1769
      C01106H     LINE      ---       ---     ---   #1770
      C01108H     LINE      ---       ---     ---   #1771
      C0110AH     LINE      ---       ---     ---   #1772
      C0110CH     LINE      ---       ---     ---   #1773
      C0110EH     LINE      ---       ---     ---   #1774
      C01110H     LINE      ---       ---     ---   #1775
      C01112H     LINE      ---       ---     ---   #1776
      C01114H     LINE      ---       ---     ---   #1777
      C01118H     LINE      ---       ---     ---   #1778
      C0111CH     LINE      ---       ---     ---   #1779
      C01120H     LINE      ---       ---     ---   #1780
      C01124H     LINE      ---       ---     ---   #1785
      C01126H     LINE      ---       ---     ---   #1786
      C01128H     LINE      ---       ---     ---   #1787
      C0112CH     LINE      ---       ---     ---   #1788
      C0112EH     LINE      ---       ---     ---   #1789
      C01130H     LINE      ---       ---     ---   #1790
      C01132H     LINE      ---       ---     ---   #1792
      C01134H     LINE      ---       ---     ---   #1793
      C01136H     LINE      ---       ---     ---   #1794
      C0113AH     LINE      ---       ---     ---   #1795
      C0113CH     LINE      ---       ---     ---   #1796
      C0113EH     LINE      ---       ---     ---   #1797
      C01140H     LINE      ---       ---     ---   #1798
      C01144H     LINE      ---       ---     ---   #1799
      C01146H     LINE      ---       ---     ---   #1800
      C01148H     LINE      ---       ---     ---   #1801
L166 LINKER/LOCATER V5.29.2.0                                                         12/14/2020  10:56:44  PAGE 20


      C0114AH     LINE      ---       ---     ---   #1802
      C0114CH     LINE      ---       ---     ---   #1803
      C0114EH     LINE      ---       ---     ---   #1804
      C01150H     LINE      ---       ---     ---   #1893
      C01150H     SYMBOL    LABEL     ---     ---   EndInit
      C0114CH     SYMBOL    LABEL     ---     ---   StoreBit
      C0114AH     SYMBOL    LABEL     ---     ---   SetBit
      C01132H     SYMBOL    LABEL     ---     ---   InitBit
      C01124H     SYMBOL    LABEL     ---     ---   NoDPP3Adj
      C01108H     SYMBOL    LABEL     ---     ---   CopyInitVal
      C010F0H     SYMBOL    LABEL     ---     ---   LenLoad
      C010CCH     SYMBOL    LABEL     ---     ---   RepeatInit
      C010C4H     SYMBOL    LABEL     ---     ---   Init_Vars
      C010C4H     SYMBOL    LABEL     ---     ---   EndClear
      C010BAH     SYMBOL    LABEL     ---     ---   ClearNear
      C010A8H     SYMBOL    LABEL     ---     ---   RepClearFar
      C010A4H     SYMBOL    LABEL     ---     ---   ClearFar
      C01088H     SYMBOL    LABEL     ---     ---   ClearBit
      C01072H     SYMBOL    LABEL     ---     ---   RepeatClear
      C01064H     SYMBOL    LABEL     ---     ---   Clr_Memory
      C01022H     SYMBOL    LABEL     ---     ---   WNBY
      C01012H     SYMBOL    LABEL     ---     ---   WLOK
      C00FEEH     SYMBOL    LABEL     ---     ---   WBY
      ---         BLOCKEND  LVL=0     ---     ---   
      C05C4CH     PUBLIC    LABEL     ---     ---   get_ad_value
      C05B8EH     PUBLIC    LABEL     ---     ---   ad_scan
      C05A24H     PUBLIC    LABEL     ---     ---   ad_setting
      C0002CH     PUBLIC    VAR       ---     ---   ad1_chx
      C0003CH     PUBLIC    VAR       ---     ---   ad0_chx
      00A9E2H     PUBLIC    VAR       ---     ---   g_ad1
      00AA02H     PUBLIC    VAR       ---     ---   g_ad0

      C05A24H     BLOCK     LVL=0     016AH   ---   ad_setting
      C05A24H     LINE      ---       ---     ---   #16
      C05A24H     LINE      ---       ---     ---   #18
      C05A2AH     LINE      ---       ---     ---   #19
      C05A2EH     LINE      ---       ---     ---   #26
      C05A34H     LINE      ---       ---     ---   #30
      C05A3AH     LINE      ---       ---     ---   #31
      C05A40H     LINE      ---       ---     ---   #38
      C05A46H     LINE      ---       ---     ---   #39
      C05A4AH     LINE      ---       ---     ---   #40
      C05A4EH     LINE      ---       ---     ---   #41
      C05A52H     LINE      ---       ---     ---   #42
      C05A56H     LINE      ---       ---     ---   #43
      C05A5AH     LINE      ---       ---     ---   #44
      C05A5EH     LINE      ---       ---     ---   #45
      C05A62H     LINE      ---       ---     ---   #46
      C05A66H     LINE      ---       ---     ---   #47
      C05A6AH     LINE      ---       ---     ---   #50
      C05A70H     LINE      ---       ---     ---   #51
      C05A74H     LINE      ---       ---     ---   #58
      C05A7CH     LINE      ---       ---     ---   #59
      C05A82H     LINE      ---       ---     ---   #60
      C05A86H     LINE      ---       ---     ---   #61
      C05A8AH     LINE      ---       ---     ---   #62
      C05A8EH     LINE      ---       ---     ---   #63
L166 LINKER/LOCATER V5.29.2.0                                                         12/14/2020  10:56:44  PAGE 21


      C05A92H     LINE      ---       ---     ---   #64
      C05A96H     LINE      ---       ---     ---   #65
      C05A9AH     LINE      ---       ---     ---   #68
      C05A9EH     LINE      ---       ---     ---   #69
      C05AA2H     LINE      ---       ---     ---   #70
      C05AA6H     LINE      ---       ---     ---   #71
      C05AAAH     LINE      ---       ---     ---   #74
      C05AAEH     LINE      ---       ---     ---   #75
      C05AB2H     LINE      ---       ---     ---   #76
      C05AB6H     LINE      ---       ---     ---   #78
      C05ABCH     LINE      ---       ---     ---   #79
      C05AC2H     LINE      ---       ---     ---   #86
      C05AC6H     LINE      ---       ---     ---   #88
      C05AD0H     LINE      ---       ---     ---   #89
      C05AD4H     LINE      ---       ---     ---   #90
      C05AE0H     LINE      ---       ---     ---   #94
      C05AE4H     LINE      ---       ---     ---   #96
      C05AEAH     LINE      ---       ---     ---   #97
      C05AF0H     LINE      ---       ---     ---   #98
      C05AF6H     LINE      ---       ---     ---   #100
      C05AFCH     LINE      ---       ---     ---   #101
      C05B00H     LINE      ---       ---     ---   #102
      C05B04H     LINE      ---       ---     ---   #103
      C05B08H     LINE      ---       ---     ---   #104
      C05B0CH     LINE      ---       ---     ---   #105
      C05B10H     LINE      ---       ---     ---   #106
      C05B14H     LINE      ---       ---     ---   #108
      C05B1AH     LINE      ---       ---     ---   #109
      C05B1EH     LINE      ---       ---     ---   #111
      C05B26H     LINE      ---       ---     ---   #112
      C05B2CH     LINE      ---       ---     ---   #113
      C05B30H     LINE      ---       ---     ---   #114
      C05B34H     LINE      ---       ---     ---   #115
      C05B38H     LINE      ---       ---     ---   #116
      C05B3CH     LINE      ---       ---     ---   #117
      C05B40H     LINE      ---       ---     ---   #118
      C05B44H     LINE      ---       ---     ---   #120
      C05B48H     LINE      ---       ---     ---   #121
      C05B4CH     LINE      ---       ---     ---   #123
      C05B50H     LINE      ---       ---     ---   #124
      C05B54H     LINE      ---       ---     ---   #125
      C05B58H     LINE      ---       ---     ---   #127
      C05B5EH     LINE      ---       ---     ---   #128
      C05B64H     LINE      ---       ---     ---   #129
      C05B68H     LINE      ---       ---     ---   #131
      C05B72H     LINE      ---       ---     ---   #132
      C05B76H     LINE      ---       ---     ---   #133
      C05B82H     LINE      ---       ---     ---   #136
      C05B88H     LINE      ---       ---     ---   #137
      C05B8CH     LINE      ---       ---     ---   #139
      ---         BLOCKEND  LVL=0     ---     ---   

      C05B8EH     BLOCK     LVL=0     00BEH   ---   ad_scan
      C05B8EH     BLOCK     LVL=1     00BCH   ---   
      E003FEH     SYMBOL    VAR       ---     ---   ad0_idx
      E003FDH     SYMBOL    VAR       ---     ---   ad1_idx
      00008EH     SYMBOL    REG       ---     ---   chnum
L166 LINKER/LOCATER V5.29.2.0                                                         12/14/2020  10:56:44  PAGE 22


      000006H     SYMBOL    REG       ---     ---   val
      ---         BLOCKEND  LVL=1     ---     ---   
      C05B8EH     LINE      ---       ---     ---   #142
      C05B8EH     LINE      ---       ---     ---   #143
      C05B8EH     LINE      ---       ---     ---   #151
      C05B9EH     LINE      ---       ---     ---   #153
      C05BA6H     LINE      ---       ---     ---   #154
      C05BB2H     LINE      ---       ---     ---   #155
      C05BBEH     LINE      ---       ---     ---   #157
      C05BD6H     LINE      ---       ---     ---   #158
      C05BDAH     LINE      ---       ---     ---   #159
      C05BECH     LINE      ---       ---     ---   #160
      C05BECH     LINE      ---       ---     ---   #163
      C05BFCH     LINE      ---       ---     ---   #165
      C05C04H     LINE      ---       ---     ---   #166
      C05C10H     LINE      ---       ---     ---   #167
      C05C1CH     LINE      ---       ---     ---   #169
      C05C34H     LINE      ---       ---     ---   #170
      C05C38H     LINE      ---       ---     ---   #171
      C05C4AH     LINE      ---       ---     ---   #172
      ---         BLOCKEND  LVL=0     ---     ---   

      C05C4CH     BLOCK     LVL=0     0034H   ---   get_ad_value
      000048H     SYMBOL    REG       ---     ---   chan_no
      C05C4CH     BLOCK     LVL=1     0032H   ---   
      000005H     SYMBOL    REG       ---     ---   g_ad_tmp
      ---         BLOCKEND  LVL=1     ---     ---   
      C05C4CH     LINE      ---       ---     ---   #175
      C05C4CH     LINE      ---       ---     ---   #176
      C05C4CH     LINE      ---       ---     ---   #177
      C05C4EH     LINE      ---       ---     ---   #179
      C05C5AH     LINE      ---       ---     ---   #181
      C05C6CH     LINE      ---       ---     ---   #182
      C05C6EH     LINE      ---       ---     ---   #185
      C05C7CH     LINE      ---       ---     ---   #186
      C05C7CH     LINE      ---       ---     ---   #188
      C05C7EH     LINE      ---       ---     ---   #189
      ---         BLOCKEND  LVL=0     ---     ---   
      C06212H     PUBLIC    LABEL     ---     ---   hw_init
      C06344H     PUBLIC    LABEL     ---     ---   delay_us
      C06342H     PUBLIC    LABEL     ---     ---   capcom_setting
      C06358H     PUBLIC    LABEL     ---     ---   delay_ns
      C06384H     PUBLIC    LABEL     ---     ---   delay_ms
      C061F8H     PUBLIC    LABEL     ---     ---   mcu_lock
      C0636EH     PUBLIC    LABEL     ---     ---   delay_msx
      C061E4H     PUBLIC    LABEL     ---     ---   mcu_unlock
      C0633CH     PUBLIC    LABEL     ---     ---   pll_setting
      C0639CH     PUBLIC    LABEL     ---     ---   keep_alive
      C06268H     PUBLIC    LABEL     ---     ---   gpio_setting
      E003FFH     PUBLIC    VAR       ---     ---   g_overflow_5ms_ub
      E00400H     PUBLIC    VAR       ---     ---   g_overflow_10ms_ub

      C061E4H     BLOCK     LVL=0     0014H   ---   mcu_unlock
      C061E4H     LINE      ---       ---     ---   #16
      C061E4H     LINE      ---       ---     ---   #18
      C061EAH     LINE      ---       ---     ---   #19
      C061EEH     LINE      ---       ---     ---   #20
L166 LINKER/LOCATER V5.29.2.0                                                         12/14/2020  10:56:44  PAGE 23


      C061F2H     LINE      ---       ---     ---   #21
      C061F6H     LINE      ---       ---     ---   #22
      ---         BLOCKEND  LVL=0     ---     ---   

      C061F8H     BLOCK     LVL=0     001AH   ---   mcu_lock
      C061F8H     LINE      ---       ---     ---   #23
      C061F8H     LINE      ---       ---     ---   #25
      C061FEH     LINE      ---       ---     ---   #26
      C06202H     LINE      ---       ---     ---   #27
      C06206H     LINE      ---       ---     ---   #28
      C0620AH     LINE      ---       ---     ---   #29
      C06210H     LINE      ---       ---     ---   #30
      ---         BLOCKEND  LVL=0     ---     ---   

      C06212H     BLOCK     LVL=0     0056H   ---   hw_init
      C06212H     LINE      ---       ---     ---   #32
      C06212H     LINE      ---       ---     ---   #33
      C06212H     LINE      ---       ---     ---   #34
      C06212H     LINE      ---       ---     ---   #36
      C06214H     LINE      ---       ---     ---   #37
      C06218H     LINE      ---       ---     ---   #39
      C0621CH     LINE      ---       ---     ---   #40
      C06220H     LINE      ---       ---     ---   #41
      C06224H     LINE      ---       ---     ---   #43
      C06228H     LINE      ---       ---     ---   #44
      C0622CH     LINE      ---       ---     ---   #45
      C06230H     LINE      ---       ---     ---   #46
      C06234H     LINE      ---       ---     ---   #47
      C06238H     LINE      ---       ---     ---   #48
      C0623CH     LINE      ---       ---     ---   #49
      C06240H     LINE      ---       ---     ---   #50
      C06244H     LINE      ---       ---     ---   #51
      C06248H     LINE      ---       ---     ---   #52
      C0624CH     LINE      ---       ---     ---   #53
      C06250H     LINE      ---       ---     ---   #55
      C06254H     LINE      ---       ---     ---   #57
      C06258H     LINE      ---       ---     ---   #58
      C0625AH     LINE      ---       ---     ---   #60
      C06264H     LINE      ---       ---     ---   #62
      C06266H     LINE      ---       ---     ---   #63
      ---         BLOCKEND  LVL=0     ---     ---   

      C06268H     BLOCK     LVL=0     00D4H   ---   gpio_setting
      C06268H     LINE      ---       ---     ---   #66
      C06268H     LINE      ---       ---     ---   #68
      C06270H     LINE      ---       ---     ---   #69
      C06274H     LINE      ---       ---     ---   #70
      C06278H     LINE      ---       ---     ---   #71
      C0627EH     LINE      ---       ---     ---   #72
      C06286H     LINE      ---       ---     ---   #73
      C0628CH     LINE      ---       ---     ---   #74
      C06290H     LINE      ---       ---     ---   #75
      C06298H     LINE      ---       ---     ---   #76
      C0629CH     LINE      ---       ---     ---   #77
      C062A0H     LINE      ---       ---     ---   #79
      C062A8H     LINE      ---       ---     ---   #80
      C062AEH     LINE      ---       ---     ---   #81
L166 LINKER/LOCATER V5.29.2.0                                                         12/14/2020  10:56:44  PAGE 24


      C062B6H     LINE      ---       ---     ---   #82
      C062BAH     LINE      ---       ---     ---   #84
      C062C2H     LINE      ---       ---     ---   #85
      C062C6H     LINE      ---       ---     ---   #86
      C062CAH     LINE      ---       ---     ---   #87
      C062CEH     LINE      ---       ---     ---   #88
      C062D2H     LINE      ---       ---     ---   #89
      C062D6H     LINE      ---       ---     ---   #91
      C062DCH     LINE      ---       ---     ---   #92
      C062E0H     LINE      ---       ---     ---   #93
      C062E4H     LINE      ---       ---     ---   #95
      C062ECH     LINE      ---       ---     ---   #97
      C062F2H     LINE      ---       ---     ---   #98
      C062F6H     LINE      ---       ---     ---   #100
      C062FEH     LINE      ---       ---     ---   #102
      C06302H     LINE      ---       ---     ---   #104
      C06306H     LINE      ---       ---     ---   #105
      C0630AH     LINE      ---       ---     ---   #106
      C06310H     LINE      ---       ---     ---   #107
      C06318H     LINE      ---       ---     ---   #109
      C0631CH     LINE      ---       ---     ---   #110
      C06322H     LINE      ---       ---     ---   #111
      C0632AH     LINE      ---       ---     ---   #112
      C0632EH     LINE      ---       ---     ---   #114
      C06332H     LINE      ---       ---     ---   #115
      C06336H     LINE      ---       ---     ---   #117
      C0633AH     LINE      ---       ---     ---   #118
      ---         BLOCKEND  LVL=0     ---     ---   

      C0633CH     BLOCK     LVL=0     0006H   ---   pll_setting
      C0633CH     LINE      ---       ---     ---   #121
      C0633CH     LINE      ---       ---     ---   #123
      C06340H     LINE      ---       ---     ---   #124
      ---         BLOCKEND  LVL=0     ---     ---   

      C06342H     BLOCK     LVL=0     0002H   ---   capcom_setting
      C06342H     LINE      ---       ---     ---   #127
      C06342H     LINE      ---       ---     ---   #129
      ---         BLOCKEND  LVL=0     ---     ---   

      C06344H     BLOCK     LVL=0     0014H   ---   delay_us
      000008H     SYMBOL    REG       ---     ---   tm
      C06344H     BLOCK     LVL=1     0012H   ---   
      000006H     SYMBOL    REG       ---     ---   idx
      000005H     SYMBOL    REG       ---     ---   i
      ---         BLOCKEND  LVL=1     ---     ---   
      C06344H     LINE      ---       ---     ---   #133
      C06344H     LINE      ---       ---     ---   #134
      C06344H     LINE      ---       ---     ---   #136
      C06348H     LINE      ---       ---     ---   #137
      C06356H     LINE      ---       ---     ---   #138
      ---         BLOCKEND  LVL=0     ---     ---   

      C06358H     BLOCK     LVL=0     0016H   ---   delay_ns
      000048H     SYMBOL    REG       ---     ---   tm
      C06358H     BLOCK     LVL=1     0014H   ---   
      000006H     SYMBOL    REG       ---     ---   idx
L166 LINKER/LOCATER V5.29.2.0                                                         12/14/2020  10:56:44  PAGE 25


      000005H     SYMBOL    REG       ---     ---   i
      ---         BLOCKEND  LVL=1     ---     ---   
      C06358H     LINE      ---       ---     ---   #142
      C06358H     LINE      ---       ---     ---   #143
      C06358H     LINE      ---       ---     ---   #145
      C0635CH     LINE      ---       ---     ---   #146
      C0636CH     LINE      ---       ---     ---   #147
      ---         BLOCKEND  LVL=0     ---     ---   

      C0636EH     BLOCK     LVL=0     0016H   ---   delay_msx
      000007H     SYMBOL    REG       ---     ---   tm
      C06370H     BLOCK     LVL=1     0012H   ---   
      000009H     SYMBOL    REG       ---     ---   idx
      ---         BLOCKEND  LVL=1     ---     ---   
      C0636EH     LINE      ---       ---     ---   #150
      C06370H     LINE      ---       ---     ---   #151
      C06370H     LINE      ---       ---     ---   #154
      C06374H     LINE      ---       ---     ---   #155
      C06382H     LINE      ---       ---     ---   #156
      ---         BLOCKEND  LVL=0     ---     ---   

      C06384H     BLOCK     LVL=0     0018H   ---   delay_ms
      000008H     SYMBOL    REG       ---     ---   tm
      C06384H     BLOCK     LVL=1     0016H   ---   
      000004H     SYMBOL    REG       ---     ---   tm0
      000006H     SYMBOL    REG       ---     ---   tm1
      ---         BLOCKEND  LVL=1     ---     ---   
      C06384H     LINE      ---       ---     ---   #159
      C06384H     LINE      ---       ---     ---   #161
      C0639AH     LINE      ---       ---     ---   #174
      ---         BLOCKEND  LVL=0     ---     ---   

      C0639CH     BLOCK     LVL=0     000EH   ---   keep_alive
      000048H     SYMBOL    REG       ---     ---   on_off
      C0639CH     LINE      ---       ---     ---   #176
      C0639CH     LINE      ---       ---     ---   #178
      C063A2H     LINE      ---       ---     ---   #180
      C063A4H     LINE      ---       ---     ---   #181
      C063A6H     LINE      ---       ---     ---   #184
      C063A8H     LINE      ---       ---     ---   #185
      C063A8H     LINE      ---       ---     ---   #186
      ---         BLOCKEND  LVL=0     ---     ---   
      C06FF8H     PUBLIC    LABEL     ---     ---   isr_rtc
      C06FB4H     PUBLIC    LABEL     ---     ---   rtc_setting
      E003D4H     PUBLIC    VAR       ---     ---   g_ms_uw
      E003D6H     PUBLIC    VAR       ---     ---   g_min
      E003D8H     PUBLIC    VAR       ---     ---   g_hour
      E003DAH     PUBLIC    VAR       ---     ---   g_day

      C06FB4H     BLOCK     LVL=0     0044H   ---   rtc_setting
      C06FB4H     LINE      ---       ---     ---   #10
      C06FB4H     LINE      ---       ---     ---   #12
      C06FBAH     LINE      ---       ---     ---   #13
      C06FBEH     LINE      ---       ---     ---   #14
      C06FC2H     LINE      ---       ---     ---   #17
      C06FCAH     LINE      ---       ---     ---   #18
      C06FD0H     LINE      ---       ---     ---   #22
L166 LINKER/LOCATER V5.29.2.0                                                         12/14/2020  10:56:44  PAGE 26


      C06FD4H     LINE      ---       ---     ---   #23
      C06FD8H     LINE      ---       ---     ---   #24
      C06FDCH     LINE      ---       ---     ---   #25
      C06FE2H     LINE      ---       ---     ---   #26
      C06FE6H     LINE      ---       ---     ---   #27
      C06FEAH     LINE      ---       ---     ---   #29
      C06FEEH     LINE      ---       ---     ---   #30
      C06FF4H     LINE      ---       ---     ---   #32
      C06FF6H     LINE      ---       ---     ---   #33
      ---         BLOCKEND  LVL=0     ---     ---   

      C06FF8H     BLOCK     LVL=0     0012H   ---   isr_rtc
      C06FF8H     LINE      ---       ---     ---   #37
      C06FFCH     LINE      ---       ---     ---   #39
      C07002H     LINE      ---       ---     ---   #41
      C07006H     LINE      ---       ---     ---   #42
      ---         BLOCKEND  LVL=0     ---     ---   
      C03A7AH     PUBLIC    LABEL     ---     ---   SCS_DelayByTimer
      C03D4CH     PUBLIC    LABEL     ---     ---   SCS_ApplyNewPDiv
      C03DB8H     PUBLIC    LABEL     ---     ---   SCS_ApplyNewNDiv
      C03ECCH     PUBLIC    LABEL     ---     ---   SCS_SelectVcoSrcOscHiPrec
      C03C0EH     PUBLIC    LABEL     ---     ---   SCS_InitTimer
      C03A26H     PUBLIC    LABEL     ---     ---   SCS_EnableOscHiPrecCrystal
      C03A52H     PUBLIC    LABEL     ---     ---   SCS_StartTimer
      C03A3CH     PUBLIC    LABEL     ---     ---   SCS_ConnectVcoInput
      C03AFEH     PUBLIC    LABEL     ---     ---   SCS_GoFromBaseToNormalMode
      C03A44H     PUBLIC    LABEL     ---     ---   SCS_SelectVcoBand
      C03A2EH     PUBLIC    LABEL     ---     ---   SCS_RestartVcoLockDetect
      C03EF2H     PUBLIC    LABEL     ---     ---   SCS_EnableVcoLockEmerg
      C03C86H     PUBLIC    LABEL     ---     ---   SCS_RestoreTimer
      C03F54H     PUBLIC    LABEL     ---     ---   SCS_EnableVcoBypass
      C03F30H     PUBLIC    LABEL     ---     ---   SCS_DisableVcoBypass
      C03CBAH     PUBLIC    LABEL     ---     ---   SCS_CheckFreqOscHiPrec
      C03E76H     PUBLIC    LABEL     ---     ---   SCS_ApplyNewK2Div
      C03E22H     PUBLIC    LABEL     ---     ---   SCS_ApplyNewK1Div
      C03A34H     PUBLIC    LABEL     ---     ---   SCS_DisconnectVcoInput
      C03AAAH     SYMBOL    LABEL     ---     ---   SCS_RampUpPllInNormalMode
      E003B6H     SYMBOL    VAR       ---     ---   Ccu60Tctr2Save
      E003B8H     SYMBOL    VAR       ---     ---   Ccu60Tctr0Save
      E003BAH     SYMBOL    VAR       ---     ---   Ccu60McfgSave
      E003BCH     SYMBOL    VAR       ---     ---   Ccu60KscfgSave
      E003BEH     SYMBOL    VAR       ---     ---   Ccu60PiselhSave

      C03A26H     BLOCK     LVL=0     0008H   ---   SCS_EnableOscHiPrecCrystal
      C03A26H     LINE      ---       ---     ---   #249
      C03A26H     LINE      ---       ---     ---   #287
      C03A2CH     LINE      ---       ---     ---   #291
      ---         BLOCKEND  LVL=0     ---     ---   

      C03A2EH     BLOCK     LVL=0     0006H   ---   SCS_RestartVcoLockDetect
      C03A2EH     LINE      ---       ---     ---   #318
      C03A2EH     LINE      ---       ---     ---   #322
      C03A32H     LINE      ---       ---     ---   #326
      ---         BLOCKEND  LVL=0     ---     ---   

      C03A34H     BLOCK     LVL=0     0008H   ---   SCS_DisconnectVcoInput
      C03A34H     LINE      ---       ---     ---   #354
L166 LINKER/LOCATER V5.29.2.0                                                         12/14/2020  10:56:44  PAGE 27


      C03A34H     LINE      ---       ---     ---   #363
      C03A3AH     LINE      ---       ---     ---   #365
      ---         BLOCKEND  LVL=0     ---     ---   

      C03A3CH     BLOCK     LVL=0     0008H   ---   SCS_ConnectVcoInput
      C03A3CH     LINE      ---       ---     ---   #393
      C03A3CH     LINE      ---       ---     ---   #402
      C03A42H     LINE      ---       ---     ---   #404
      ---         BLOCKEND  LVL=0     ---     ---   

      C03A44H     BLOCK     LVL=0     000EH   ---   SCS_SelectVcoBand
      000008H     SYMBOL    REG       ---     ---   VcoBand
      C03A44H     LINE      ---       ---     ---   #431
      C03A44H     LINE      ---       ---     ---   #434
      C03A50H     LINE      ---       ---     ---   #436
      ---         BLOCKEND  LVL=0     ---     ---   

      C03A52H     BLOCK     LVL=0     0028H   ---   SCS_StartTimer
      000008H     SYMBOL    REG       ---     ---   Cycles
      C03A52H     LINE      ---       ---     ---   #465
      C03A52H     LINE      ---       ---     ---   #481
      C03A5AH     LINE      ---       ---     ---   #484
      C03A5EH     LINE      ---       ---     ---   #486
      C03A60H     LINE      ---       ---     ---   #487
      C03A60H     LINE      ---       ---     ---   #490
      C03A68H     LINE      ---       ---     ---   #506
      C03A70H     LINE      ---       ---     ---   #522
      C03A78H     LINE      ---       ---     ---   #524
      ---         BLOCKEND  LVL=0     ---     ---   

      C03A7AH     BLOCK     LVL=0     0030H   ---   SCS_DelayByTimer
      000008H     SYMBOL    REG       ---     ---   Cycles
      C03A7AH     BLOCK     LVL=1     0026H   ---   
      000008H     SYMBOL    REG       ---     ---   Cycles?1?SCS_StartTimer
      ---         BLOCKEND  LVL=1     ---     ---   
      C03A7AH     LINE      ---       ---     ---   #553
      C03A7AH     LINE      ---       ---     ---   #556
      C03A7AH     LINE      ---       ---     ---   #481
      C03A82H     LINE      ---       ---     ---   #484
      C03A86H     LINE      ---       ---     ---   #486
      C03A88H     LINE      ---       ---     ---   #487
      C03A88H     LINE      ---       ---     ---   #490
      C03A90H     LINE      ---       ---     ---   #506
      C03A98H     LINE      ---       ---     ---   #522
      C03AA0H     LINE      ---       ---     ---   #559
      C03AA0H     LINE      ---       ---     ---   #561
      C03AA8H     LINE      ---       ---     ---   #564
      ---         BLOCKEND  LVL=0     ---     ---   

      C03AAAH     BLOCK     LVL=0     0054H   ---   SCS_RampUpPllInNormalMode
      C03AACH     BLOCK     LVL=1     004EH   ---   
      00000DH     SYMBOL    REG       ---     ---   Error
      ---         BLOCKEND  LVL=1     ---     ---   
      C03AAAH     LINE      ---       ---     ---   #593
      C03AACH     LINE      ---       ---     ---   #594
      C03AACH     LINE      ---       ---     ---   #599
      C03AB4H     LINE      ---       ---     ---   #600
L166 LINKER/LOCATER V5.29.2.0                                                         12/14/2020  10:56:44  PAGE 28


      C03AB8H     LINE      ---       ---     ---   #602
      C03ABAH     LINE      ---       ---     ---   #603
      C03ABAH     LINE      ---       ---     ---   #607
      C03AC0H     LINE      ---       ---     ---   #610
      C03AC8H     LINE      ---       ---     ---   #611
      C03ACCH     LINE      ---       ---     ---   #613
      C03ACEH     LINE      ---       ---     ---   #614
      C03ACEH     LINE      ---       ---     ---   #618
      C03AD4H     LINE      ---       ---     ---   #621
      C03ADCH     LINE      ---       ---     ---   #622
      C03AE0H     LINE      ---       ---     ---   #624
      C03AE2H     LINE      ---       ---     ---   #625
      C03AE2H     LINE      ---       ---     ---   #627
      C03AEAH     LINE      ---       ---     ---   #641
      C03AF2H     LINE      ---       ---     ---   #642
      C03AF6H     LINE      ---       ---     ---   #644
      C03AF8H     LINE      ---       ---     ---   #645
      C03AF8H     LINE      ---       ---     ---   #648
      C03AFAH     LINE      ---       ---     ---   #650
      ---         BLOCKEND  LVL=0     ---     ---   

      C03AFEH     BLOCK     LVL=0     0110H   ---   SCS_GoFromBaseToNormalMode
      C03B00H     BLOCK     LVL=1     010AH   ---   
      00000DH     SYMBOL    REG       ---     ---   Error
      C03B32H     BLOCK     LVL=2     000EH   ---   
      000004H     SYMBOL    REG       ---     ---   VcoBand?3?SCS_SelectVcoBand
      ---         BLOCKEND  LVL=2     ---     ---   
      C03BB4H     BLOCK     LVL=2     0020H   ---   
      000004H     SYMBOL    REG       ---     ---   Cycles?7?SCS_StartTimer
      ---         BLOCKEND  LVL=2     ---     ---   
      ---         BLOCKEND  LVL=1     ---     ---   
      C03AFEH     LINE      ---       ---     ---   #679
      C03B00H     LINE      ---       ---     ---   #680
      C03B00H     LINE      ---       ---     ---   #287
      C03B06H     LINE      ---       ---     ---   #687
      C03B0CH     LINE      ---       ---     ---   #688
      C03B10H     LINE      ---       ---     ---   #690
      C03B12H     LINE      ---       ---     ---   #691
      C03B12H     LINE      ---       ---     ---   #694
      C03B1AH     LINE      ---       ---     ---   #695
      C03B1EH     LINE      ---       ---     ---   #697
      C03B20H     LINE      ---       ---     ---   #698
      C03B20H     LINE      ---       ---     ---   #701
      C03B26H     LINE      ---       ---     ---   #702
      C03B2AH     LINE      ---       ---     ---   #704
      C03B2CH     LINE      ---       ---     ---   #705
      C03B2CH     LINE      ---       ---     ---   #707
      C03B32H     LINE      ---       ---     ---   #711
      C03B32H     LINE      ---       ---     ---   #434
      C03B40H     LINE      ---       ---     ---   #714
      C03B48H     LINE      ---       ---     ---   #715
      C03B4AH     LINE      ---       ---     ---   #720
      C03B52H     LINE      ---       ---     ---   #721
      C03B56H     LINE      ---       ---     ---   #723
      C03B58H     LINE      ---       ---     ---   #724
      C03B58H     LINE      ---       ---     ---   #728
      C03B60H     LINE      ---       ---     ---   #729
L166 LINKER/LOCATER V5.29.2.0                                                         12/14/2020  10:56:44  PAGE 29


      C03B64H     LINE      ---       ---     ---   #731
      C03B66H     LINE      ---       ---     ---   #732
      C03B66H     LINE      ---       ---     ---   #735
      C03B70H     LINE      ---       ---     ---   #736
      C03B74H     LINE      ---       ---     ---   #738
      C03B76H     LINE      ---       ---     ---   #739
      C03B76H     LINE      ---       ---     ---   #363
      C03B7CH     LINE      ---       ---     ---   #745
      C03B84H     LINE      ---       ---     ---   #748
      C03B8AH     LINE      ---       ---     ---   #749
      C03B8EH     LINE      ---       ---     ---   #751
      C03B90H     LINE      ---       ---     ---   #752
      C03B90H     LINE      ---       ---     ---   #755
      C03B96H     LINE      ---       ---     ---   #756
      C03B9AH     LINE      ---       ---     ---   #758
      C03B9CH     LINE      ---       ---     ---   #759
      C03B9CH     LINE      ---       ---     ---   #763
      C03BA6H     LINE      ---       ---     ---   #764
      C03BAAH     LINE      ---       ---     ---   #766
      C03BACH     LINE      ---       ---     ---   #767
      C03BACH     LINE      ---       ---     ---   #402
      C03BB2H     LINE      ---       ---     ---   #322
      C03BB4H     LINE      ---       ---     ---   #776
      C03BB4H     LINE      ---       ---     ---   #481
      C03BBCH     LINE      ---       ---     ---   #484
      C03BBCH     LINE      ---       ---     ---   #486
      C03BBCH     LINE      ---       ---     ---   #487
      C03BBCH     LINE      ---       ---     ---   #490
      C03BC4H     LINE      ---       ---     ---   #506
      C03BCCH     LINE      ---       ---     ---   #522
      C03BD4H     LINE      ---       ---     ---   #779
      C03BD4H     LINE      ---       ---     ---   #781
      C03BE4H     LINE      ---       ---     ---   #783
      C03BECH     LINE      ---       ---     ---   #786
      C03BF0H     LINE      ---       ---     ---   #787
      C03BF0H     LINE      ---       ---     ---   #790
      C03BF6H     LINE      ---       ---     ---   #791
      C03BFAH     LINE      ---       ---     ---   #793
      C03BFCH     LINE      ---       ---     ---   #794
      C03BFCH     LINE      ---       ---     ---   #797
      C03C02H     LINE      ---       ---     ---   #798
      C03C06H     LINE      ---       ---     ---   #800
      C03C08H     LINE      ---       ---     ---   #801
      C03C08H     LINE      ---       ---     ---   #804
      C03C0AH     LINE      ---       ---     ---   #806
      ---         BLOCKEND  LVL=0     ---     ---   

      C03C0EH     BLOCK     LVL=0     0078H   ---   SCS_InitTimer
      C03C10H     BLOCK     LVL=1     0072H   ---   
      000000H     SYMBOL    AUTO      ---     ---   Work
      ---         BLOCKEND  LVL=1     ---     ---   
      C03C0EH     LINE      ---       ---     ---   #839
      C03C10H     LINE      ---       ---     ---   #840
      C03C10H     LINE      ---       ---     ---   #844
      C03C18H     LINE      ---       ---     ---   #858
      C03C22H     LINE      ---       ---     ---   #861
      C03C28H     LINE      ---       ---     ---   #864
L166 LINKER/LOCATER V5.29.2.0                                                         12/14/2020  10:56:44  PAGE 30


      C03C30H     LINE      ---       ---     ---   #870
      C03C3AH     LINE      ---       ---     ---   #887
      C03C42H     LINE      ---       ---     ---   #890
      C03C4AH     LINE      ---       ---     ---   #934
      C03C58H     LINE      ---       ---     ---   #939
      C03C60H     LINE      ---       ---     ---   #965
      C03C6EH     LINE      ---       ---     ---   #972
      C03C76H     LINE      ---       ---     ---   #981
      C03C82H     LINE      ---       ---     ---   #985
      ---         BLOCKEND  LVL=0     ---     ---   

      C03C86H     BLOCK     LVL=0     0034H   ---   SCS_RestoreTimer
      C03C86H     LINE      ---       ---     ---   #1016
      C03C86H     LINE      ---       ---     ---   #1032
      C03C8EH     LINE      ---       ---     ---   #1035
      C03C96H     LINE      ---       ---     ---   #1038
      C03C9EH     LINE      ---       ---     ---   #1041
      C03CA6H     LINE      ---       ---     ---   #1044
      C03CAEH     LINE      ---       ---     ---   #1058
      C03CB8H     LINE      ---       ---     ---   #1060
      ---         BLOCKEND  LVL=0     ---     ---   

      C03CBAH     BLOCK     LVL=0     0092H   ---   SCS_CheckFreqOscHiPrec
      C03CBAH     BLOCK     LVL=1     0090H   ---   
      000005H     SYMBOL    REG       ---     ---   Attempts
      C03CBCH     BLOCK     LVL=2     0020H   ---   
      000006H     SYMBOL    REG       ---     ---   Cycles?8?SCS_StartTimer
      ---         BLOCKEND  LVL=2     ---     ---   
      C03CFAH     BLOCK     LVL=2     0020H   ---   
      000006H     SYMBOL    REG       ---     ---   Cycles?9?SCS_StartTimer
      ---         BLOCKEND  LVL=2     ---     ---   
      ---         BLOCKEND  LVL=1     ---     ---   
      C03CBAH     LINE      ---       ---     ---   #1085
      C03CBAH     LINE      ---       ---     ---   #1086
      C03CBAH     LINE      ---       ---     ---   #1090
      C03CBCH     LINE      ---       ---     ---   #1092
      C03CBCH     LINE      ---       ---     ---   #1095
      C03CBCH     LINE      ---       ---     ---   #481
      C03CC4H     LINE      ---       ---     ---   #484
      C03CC4H     LINE      ---       ---     ---   #486
      C03CC4H     LINE      ---       ---     ---   #487
      C03CC4H     LINE      ---       ---     ---   #490
      C03CCCH     LINE      ---       ---     ---   #506
      C03CD4H     LINE      ---       ---     ---   #522
      C03CDCH     LINE      ---       ---     ---   #1098
      C03CDCH     LINE      ---       ---     ---   #1100
      C03CEAH     LINE      ---       ---     ---   #1103
      C03CF0H     LINE      ---       ---     ---   #1106
      C03CF4H     LINE      ---       ---     ---   #1107
      C03CF4H     LINE      ---       ---     ---   #1116
      C03CFAH     LINE      ---       ---     ---   #1120
      C03CFAH     LINE      ---       ---     ---   #481
      C03D02H     LINE      ---       ---     ---   #484
      C03D02H     LINE      ---       ---     ---   #486
      C03D02H     LINE      ---       ---     ---   #487
      C03D02H     LINE      ---       ---     ---   #490
      C03D0AH     LINE      ---       ---     ---   #506
L166 LINKER/LOCATER V5.29.2.0                                                         12/14/2020  10:56:44  PAGE 31


      C03D12H     LINE      ---       ---     ---   #522
      C03D1AH     LINE      ---       ---     ---   #1123
      C03D1AH     LINE      ---       ---     ---   #1125
      C03D30H     LINE      ---       ---     ---   #1127
      C03D3EH     LINE      ---       ---     ---   #1130
      C03D42H     LINE      ---       ---     ---   #1131
      C03D42H     LINE      ---       ---     ---   #1133
      C03D44H     LINE      ---       ---     ---   #1134
      C03D48H     LINE      ---       ---     ---   #1138
      C03D4AH     LINE      ---       ---     ---   #1140
      ---         BLOCKEND  LVL=0     ---     ---   

      C03D4CH     BLOCK     LVL=0     006CH   ---   SCS_ApplyNewPDiv
      000008H     SYMBOL    REG       ---     ---   PDiv
      C03D4CH     LINE      ---       ---     ---   #1169
      C03D4CH     LINE      ---       ---     ---   #1171
      C03D5AH     LINE      ---       ---     ---   #1174
      C03D5EH     LINE      ---       ---     ---   #1175
      C03D5EH     LINE      ---       ---     ---   #1184
      C03D64H     LINE      ---       ---     ---   #1209
      C03D76H     LINE      ---       ---     ---   #1213
      C03D8EH     LINE      ---       ---     ---   #1215
      C03D92H     LINE      ---       ---     ---   #1216
      C03D92H     LINE      ---       ---     ---   #1220
      C03D98H     LINE      ---       ---     ---   #1223
      C03DB0H     LINE      ---       ---     ---   #1225
      C03DB4H     LINE      ---       ---     ---   #1226
      C03DB4H     LINE      ---       ---     ---   #1229
      C03DB6H     LINE      ---       ---     ---   #1231
      ---         BLOCKEND  LVL=0     ---     ---   

      C03DB8H     BLOCK     LVL=0     006AH   ---   SCS_ApplyNewNDiv
      000008H     SYMBOL    REG       ---     ---   NDiv
      C03DB8H     LINE      ---       ---     ---   #1260
      C03DB8H     LINE      ---       ---     ---   #1262
      C03DC6H     LINE      ---       ---     ---   #1265
      C03DCAH     LINE      ---       ---     ---   #1266
      C03DCAH     LINE      ---       ---     ---   #1275
      C03DD0H     LINE      ---       ---     ---   #1297
      C03DE0H     LINE      ---       ---     ---   #1301
      C03DF8H     LINE      ---       ---     ---   #1303
      C03DFCH     LINE      ---       ---     ---   #1304
      C03DFCH     LINE      ---       ---     ---   #1308
      C03E02H     LINE      ---       ---     ---   #1311
      C03E1AH     LINE      ---       ---     ---   #1313
      C03E1EH     LINE      ---       ---     ---   #1314
      C03E1EH     LINE      ---       ---     ---   #1317
      C03E20H     LINE      ---       ---     ---   #1319
      ---         BLOCKEND  LVL=0     ---     ---   

      C03E22H     BLOCK     LVL=0     0054H   ---   SCS_ApplyNewK1Div
      000008H     SYMBOL    REG       ---     ---   K1Div
      C03E22H     LINE      ---       ---     ---   #1348
      C03E22H     LINE      ---       ---     ---   #1350
      C03E2EH     LINE      ---       ---     ---   #1353
      C03E32H     LINE      ---       ---     ---   #1354
      C03E32H     LINE      ---       ---     ---   #1360
L166 LINKER/LOCATER V5.29.2.0                                                         12/14/2020  10:56:44  PAGE 32


      C03E36H     LINE      ---       ---     ---   #1364
      C03E4EH     LINE      ---       ---     ---   #1366
      C03E52H     LINE      ---       ---     ---   #1367
      C03E52H     LINE      ---       ---     ---   #1370
      C03E56H     LINE      ---       ---     ---   #1373
      C03E6EH     LINE      ---       ---     ---   #1375
      C03E72H     LINE      ---       ---     ---   #1376
      C03E72H     LINE      ---       ---     ---   #1379
      C03E74H     LINE      ---       ---     ---   #1381
      ---         BLOCKEND  LVL=0     ---     ---   

      C03E76H     BLOCK     LVL=0     0056H   ---   SCS_ApplyNewK2Div
      000008H     SYMBOL    REG       ---     ---   K2Div
      C03E76H     LINE      ---       ---     ---   #1410
      C03E76H     LINE      ---       ---     ---   #1412
      C03E82H     LINE      ---       ---     ---   #1415
      C03E86H     LINE      ---       ---     ---   #1416
      C03E86H     LINE      ---       ---     ---   #1422
      C03E8AH     LINE      ---       ---     ---   #1426
      C03EA2H     LINE      ---       ---     ---   #1428
      C03EA6H     LINE      ---       ---     ---   #1429
      C03EA6H     LINE      ---       ---     ---   #1433
      C03EACH     LINE      ---       ---     ---   #1436
      C03EC4H     LINE      ---       ---     ---   #1438
      C03EC8H     LINE      ---       ---     ---   #1439
      C03EC8H     LINE      ---       ---     ---   #1442
      C03ECAH     LINE      ---       ---     ---   #1444
      ---         BLOCKEND  LVL=0     ---     ---   

      C03ECCH     BLOCK     LVL=0     0026H   ---   SCS_SelectVcoSrcOscHiPrec
      C03ECCH     LINE      ---       ---     ---   #1471
      C03ECCH     LINE      ---       ---     ---   #1495
      C03ED2H     LINE      ---       ---     ---   #1499
      C03EEAH     LINE      ---       ---     ---   #1501
      C03EEEH     LINE      ---       ---     ---   #1502
      C03EEEH     LINE      ---       ---     ---   #1505
      C03EF0H     LINE      ---       ---     ---   #1507
      ---         BLOCKEND  LVL=0     ---     ---   

      C03EF2H     BLOCK     LVL=0     003EH   ---   SCS_EnableVcoLockEmerg
      C03EF2H     BLOCK     LVL=1     003CH   ---   
      000005H     SYMBOL    REG       ---     ---   Work
      ---         BLOCKEND  LVL=1     ---     ---   
      C03EF2H     LINE      ---       ---     ---   #1532
      C03EF2H     LINE      ---       ---     ---   #1534
      C03EF2H     LINE      ---       ---     ---   #1537
      C03EFAH     LINE      ---       ---     ---   #1540
      C03EFEH     LINE      ---       ---     ---   #1541
      C03EFEH     LINE      ---       ---     ---   #1550
      C03F04H     LINE      ---       ---     ---   #1553
      C03F06H     LINE      ---       ---     ---   #1556
      C03F08H     LINE      ---       ---     ---   #1561
      C03F0EH     LINE      ---       ---     ---   #1564
      C03F10H     LINE      ---       ---     ---   #1575
      C03F14H     LINE      ---       ---     ---   #1586
      C03F18H     LINE      ---       ---     ---   #1588
      C03F1CH     LINE      ---       ---     ---   #1590
L166 LINKER/LOCATER V5.29.2.0                                                         12/14/2020  10:56:44  PAGE 33


      C03F28H     LINE      ---       ---     ---   #1609
      C03F2CH     LINE      ---       ---     ---   #1610
      C03F2CH     LINE      ---       ---     ---   #1613
      C03F2EH     LINE      ---       ---     ---   #1615
      ---         BLOCKEND  LVL=0     ---     ---   

      C03F30H     BLOCK     LVL=0     0024H   ---   SCS_DisableVcoBypass
      C03F30H     LINE      ---       ---     ---   #1641
      C03F30H     LINE      ---       ---     ---   #1645
      C03F34H     LINE      ---       ---     ---   #1648
      C03F4CH     LINE      ---       ---     ---   #1650
      C03F50H     LINE      ---       ---     ---   #1651
      C03F50H     LINE      ---       ---     ---   #1655
      C03F52H     LINE      ---       ---     ---   #1657
      ---         BLOCKEND  LVL=0     ---     ---   

      C03F54H     BLOCK     LVL=0     0024H   ---   SCS_EnableVcoBypass
      C03F54H     LINE      ---       ---     ---   #1683
      C03F54H     LINE      ---       ---     ---   #1687
      C03F58H     LINE      ---       ---     ---   #1690
      C03F70H     LINE      ---       ---     ---   #1692
      C03F74H     LINE      ---       ---     ---   #1693
      C03F74H     LINE      ---       ---     ---   #1697
      C03F76H     LINE      ---       ---     ---   #1699
      ---         BLOCKEND  LVL=0     ---     ---   
      C067B2H     PUBLIC    LABEL     ---     ---   spi_eeprom_trans
      C066C8H     PUBLIC    LABEL     ---     ---   spi_mcu2_putc
      C066C4H     PUBLIC    LABEL     ---     ---   spi_mcu2_trans
      C066BCH     PUBLIC    LABEL     ---     ---   spi_setting
      C066E0H     PUBLIC    LABEL     ---     ---   spi_eeprom_setting
      C066C2H     PUBLIC    LABEL     ---     ---   spi_mcu2_setting

      C066BCH     BLOCK     LVL=0     0006H   ---   spi_setting
      C066BCH     LINE      ---       ---     ---   #7
      C066BCH     LINE      ---       ---     ---   #10
      C066C0H     LINE      ---       ---     ---   #14
      ---         BLOCKEND  LVL=0     ---     ---   

      C066C2H     BLOCK     LVL=0     0002H   ---   spi_mcu2_setting
      C066C2H     LINE      ---       ---     ---   #21
      C066C2H     LINE      ---       ---     ---   #55
      ---         BLOCKEND  LVL=0     ---     ---   

      C066C4H     BLOCK     LVL=0     0004H   ---   spi_mcu2_trans
      000008H     SYMBOL    REG       ---     ---   ch
      C066C4H     LINE      ---       ---     ---   #73
      C066C4H     LINE      ---       ---     ---   #77
      C066C6H     LINE      ---       ---     ---   #78
      ---         BLOCKEND  LVL=0     ---     ---   

      C066C8H     BLOCK     LVL=0     0018H   ---   spi_mcu2_putc
      000008H     SYMBOL    REG       ---     ---   ch
      C066C8H     LINE      ---       ---     ---   #81
      C066C8H     LINE      ---       ---     ---   #83
      C066DAH     LINE      ---       ---     ---   #84
      C066DEH     LINE      ---       ---     ---   #85
      ---         BLOCKEND  LVL=0     ---     ---   
L166 LINKER/LOCATER V5.29.2.0                                                         12/14/2020  10:56:44  PAGE 34



      C066E0H     BLOCK     LVL=0     00D2H   ---   spi_eeprom_setting
      C066E0H     LINE      ---       ---     ---   #93
      C066E0H     LINE      ---       ---     ---   #95
      C066EAH     LINE      ---       ---     ---   #96
      C066EEH     LINE      ---       ---     ---   #97
      C066F8H     LINE      ---       ---     ---   #101
      C06704H     LINE      ---       ---     ---   #102
      C06710H     LINE      ---       ---     ---   #103
      C0671AH     LINE      ---       ---     ---   #106
      C06726H     LINE      ---       ---     ---   #109
      C06730H     LINE      ---       ---     ---   #110
      C06734H     LINE      ---       ---     ---   #113
      C06740H     LINE      ---       ---     ---   #115
      C0674CH     LINE      ---       ---     ---   #118
      C06758H     LINE      ---       ---     ---   #119
      C06762H     LINE      ---       ---     ---   #122
      C0676EH     LINE      ---       ---     ---   #123
      C06778H     LINE      ---       ---     ---   #126
      C06786H     LINE      ---       ---     ---   #129
      C0678EH     LINE      ---       ---     ---   #130
      C06796H     LINE      ---       ---     ---   #131
      C0679EH     LINE      ---       ---     ---   #132
      C067A6H     LINE      ---       ---     ---   #137
      C067B0H     LINE      ---       ---     ---   #138
      ---         BLOCKEND  LVL=0     ---     ---   

      C067B2H     BLOCK     LVL=0     0080H   ---   spi_eeprom_trans
      000008H     SYMBOL    REG       ---     ---   ch
      C067B2H     BLOCK     LVL=1     0022H   ---   
      000007H     SYMBOL    REG       ---     ---   tm0
      000006H     SYMBOL    REG       ---     ---   tm1
      ---         BLOCKEND  LVL=1     ---     ---   
      C067EAH     BLOCK     LVL=1     002EH   ---   
      000007H     SYMBOL    REG       ---     ---   tm0
      000006H     SYMBOL    REG       ---     ---   tm1
      ---         BLOCKEND  LVL=1     ---     ---   
      C067B2H     LINE      ---       ---     ---   #141
      C067B2H     LINE      ---       ---     ---   #143
      C067D4H     LINE      ---       ---     ---   #145
      C067E6H     LINE      ---       ---     ---   #146
      C067EAH     LINE      ---       ---     ---   #149
      C06818H     LINE      ---       ---     ---   #150
      C0682CH     LINE      ---       ---     ---   #151
      C06830H     LINE      ---       ---     ---   #152
      ---         BLOCKEND  LVL=0     ---     ---   
      C06C1EH     PUBLIC    LABEL     ---     ---   isr_timer_hook
      C06BB0H     PUBLIC    LABEL     ---     ---   isr_systick_timer
      C06C52H     PUBLIC    LABEL     ---     ---   isr_timer_hook_user
      C06B8CH     PUBLIC    LABEL     ---     ---   timer_setting

      C06B8CH     BLOCK     LVL=0     0024H   ---   timer_setting
      C06B8CH     LINE      ---       ---     ---   #15
      C06B8CH     LINE      ---       ---     ---   #17
      C06B90H     LINE      ---       ---     ---   #18
      C06B94H     LINE      ---       ---     ---   #19
      C06B98H     LINE      ---       ---     ---   #21
L166 LINKER/LOCATER V5.29.2.0                                                         12/14/2020  10:56:44  PAGE 35


      C06B9CH     LINE      ---       ---     ---   #24
      C06BA0H     LINE      ---       ---     ---   #26
      C06BA4H     LINE      ---       ---     ---   #27
      C06BA8H     LINE      ---       ---     ---   #29
      C06BACH     LINE      ---       ---     ---   #30
      C06BAEH     LINE      ---       ---     ---   #31
      ---         BLOCKEND  LVL=0     ---     ---   

      C06BB0H     BLOCK     LVL=0     006EH   ---   isr_systick_timer
      C06BD6H     BLOCK     LVL=1     0024H   ---   
      E003FCH     SYMBOL    VAR       ---     ---   tmx
      ---         BLOCKEND  LVL=1     ---     ---   
      C06BB0H     LINE      ---       ---     ---   #37
      C06BD6H     LINE      ---       ---     ---   #38
      C06BD6H     LINE      ---       ---     ---   #41
      C06BD8H     LINE      ---       ---     ---   #42
      C06BE6H     LINE      ---       ---     ---   #44
      C06BEAH     LINE      ---       ---     ---   #45
      C06BEEH     LINE      ---       ---     ---   #46
      C06BF2H     LINE      ---       ---     ---   #47
      C06BF2H     LINE      ---       ---     ---   #48
      C06BF4H     LINE      ---       ---     ---   #49
      C06BF8H     LINE      ---       ---     ---   #50
      C06BFAH     LINE      ---       ---     ---   #51
      ---         BLOCKEND  LVL=0     ---     ---   

      C06C1EH     BLOCK     LVL=0     0034H   ---   isr_timer_hook
      C06C1EH     BLOCK     LVL=1     0032H   ---   
      E003FBH     SYMBOL    VAR       ---     ---   tmx
      E003FAH     SYMBOL    VAR       ---     ---   tmx_5ms
      ---         BLOCKEND  LVL=1     ---     ---   
      C06C1EH     LINE      ---       ---     ---   #54
      C06C1EH     LINE      ---       ---     ---   #55
      C06C1EH     LINE      ---       ---     ---   #59
      C06C22H     LINE      ---       ---     ---   #61
      C06C30H     LINE      ---       ---     ---   #63
      C06C34H     LINE      ---       ---     ---   #64
      C06C3AH     LINE      ---       ---     ---   #65
      C06C3AH     LINE      ---       ---     ---   #67
      C06C46H     LINE      ---       ---     ---   #69
      C06C4AH     LINE      ---       ---     ---   #70
      C06C50H     LINE      ---       ---     ---   #71
      ---         BLOCKEND  LVL=0     ---     ---   

      C06C52H     BLOCK     LVL=0     000EH   ---   isr_timer_hook_user
      C06C52H     LINE      ---       ---     ---   #75
      C06C52H     LINE      ---       ---     ---   #77
      C06C56H     LINE      ---       ---     ---   #78
      C06C5AH     LINE      ---       ---     ---   #79
      C06C5EH     LINE      ---       ---     ---   #80
      ---         BLOCKEND  LVL=0     ---     ---   
      C070C4H     SYMBOL    LABEL     ---     ---   Class_B_trap
      C070C2H     SYMBOL    LABEL     ---     ---   STKUF_trap
      C070C0H     SYMBOL    LABEL     ---     ---   STKOF_trap
      C070BEH     SYMBOL    LABEL     ---     ---   NMI_trap

      C070BEH     BLOCK     LVL=0     0002H   ---   NMI_trap
L166 LINKER/LOCATER V5.29.2.0                                                         12/14/2020  10:56:44  PAGE 36


      C070BEH     LINE      ---       ---     ---   #8
      C070BEH     LINE      ---       ---     ---   #10
      ---         BLOCKEND  LVL=0     ---     ---   

      C070C0H     BLOCK     LVL=0     0002H   ---   STKOF_trap
      C070C0H     LINE      ---       ---     ---   #17
      C070C0H     LINE      ---       ---     ---   #19
      ---         BLOCKEND  LVL=0     ---     ---   

      C070C2H     BLOCK     LVL=0     0002H   ---   STKUF_trap
      C070C2H     LINE      ---       ---     ---   #26
      C070C2H     LINE      ---       ---     ---   #28
      ---         BLOCKEND  LVL=0     ---     ---   

      C070C4H     BLOCK     LVL=0     0028H   ---   Class_B_trap
      C070C4H     LINE      ---       ---     ---   #40
      C070C8H     LINE      ---       ---     ---   #42
      C070CCH     LINE      ---       ---     ---   #44
      C070CEH     LINE      ---       ---     ---   #46
      C070D0H     LINE      ---       ---     ---   #47
      C070D0H     LINE      ---       ---     ---   #49
      C070D4H     LINE      ---       ---     ---   #51
      C070D6H     LINE      ---       ---     ---   #52
      C070D8H     LINE      ---       ---     ---   #53
      C070D8H     LINE      ---       ---     ---   #55
      C070DCH     LINE      ---       ---     ---   #57
      C070DEH     LINE      ---       ---     ---   #58
      C070E0H     LINE      ---       ---     ---   #59
      C070E0H     LINE      ---       ---     ---   #61
      C070E4H     LINE      ---       ---     ---   #63
      C070E6H     LINE      ---       ---     ---   #64
      C070E8H     LINE      ---       ---     ---   #65
      ---         BLOCKEND  LVL=0     ---     ---   
      C000A0H     PUBLIC    VAR       ---     ---   lib_hw_driver_version
      C02DC6H     PUBLIC    LABEL     ---     ---   can_txx
      C02AB2H     PUBLIC    LABEL     ---     ---   can_stx
      C02D68H     PUBLIC    LABEL     ---     ---   isr_can_error
      C02D0EH     PUBLIC    LABEL     ---     ---   isr_can_status
      C02B1CH     PUBLIC    LABEL     ---     ---   can_busy
      C02B84H     PUBLIC    LABEL     ---     ---   isr_can_txrx0
      C029E8H     PUBLIC    LABEL     ---     ---   can_load
      C02ADEH     PUBLIC    LABEL     ---     ---   can_stx_ex
      C02B08H     PUBLIC    LABEL     ---     ---   can_abort
      C02B36H     PUBLIC    LABEL     ---     ---   can_sload
      C02D98H     PUBLIC    LABEL     ---     ---   set_can_on
      C02DB6H     PUBLIC    LABEL     ---     ---   get_can_bus_off
      C0266EH     PUBLIC    LABEL     ---     ---   can_setting
      C02DCAH     PUBLIC    LABEL     ---     ---   can_settingx
      C02746H     PUBLIC    LABEL     ---     ---   can_tx
      C02878H     PUBLIC    LABEL     ---     ---   can_rx
      E002EFH     PUBLIC    VAR       ---     ---   g_can_status

      C0266EH     BLOCK     LVL=0     00D8H   ---   can_setting
      C02670H     BLOCK     LVL=1     00D2H   ---   
      000005H     SYMBOL    REG       ---     ---   idx
      000000H     SYMBOL    AUTO      ---     ---   tmpu16
      ---         BLOCKEND  LVL=1     ---     ---   
L166 LINKER/LOCATER V5.29.2.0                                                         12/14/2020  10:56:44  PAGE 37


      C0266EH     LINE      ---       ---     ---   #70
      C02670H     LINE      ---       ---     ---   #71
      C02670H     LINE      ---       ---     ---   #75
      C02674H     LINE      ---       ---     ---   #76
      C0267AH     LINE      ---       ---     ---   #77
      C0267EH     LINE      ---       ---     ---   #79
      C0268AH     LINE      ---       ---     ---   #80
      C02690H     LINE      ---       ---     ---   #82
      C0269CH     LINE      ---       ---     ---   #85
      C026A8H     LINE      ---       ---     ---   #86
      C026B4H     LINE      ---       ---     ---   #88
      C026BCH     LINE      ---       ---     ---   #89
      C026C2H     LINE      ---       ---     ---   #90
      C026CCH     LINE      ---       ---     ---   #92
      C026D8H     LINE      ---       ---     ---   #94
      C026E4H     LINE      ---       ---     ---   #95
      C026EEH     LINE      ---       ---     ---   #96
      C026F2H     LINE      ---       ---     ---   #97
      C026F6H     LINE      ---       ---     ---   #102
      C026F8H     LINE      ---       ---     ---   #104
      C0271AH     LINE      ---       ---     ---   #105
      C02720H     LINE      ---       ---     ---   #108
      C02726H     LINE      ---       ---     ---   #109
      C0272AH     LINE      ---       ---     ---   #110
      C0272EH     LINE      ---       ---     ---   #112
      C02742H     LINE      ---       ---     ---   #113
      ---         BLOCKEND  LVL=0     ---     ---   

      C02746H     BLOCK     LVL=0     0132H   ---   can_tx
      00004DH     SYMBOL    REG       ---     ---   no
      000009H     SYMBOL    REG       ---     ---   id
      00004EH     SYMBOL    REG       ---     ---   cfg
      000000H     SYMBOL    AUTO      ---     ---   buf
      C02752H     BLOCK     LVL=1     011CH   ---   
      00000FH     SYMBOL    REG       ---     ---   tmpu16
      ---         BLOCKEND  LVL=1     ---     ---   
      C02746H     LINE      ---       ---     ---   #126
      C02752H     LINE      ---       ---     ---   #127
      C02752H     LINE      ---       ---     ---   #130
      C0275AH     LINE      ---       ---     ---   #131
      C0275CH     LINE      ---       ---     ---   #134
      C02768H     LINE      ---       ---     ---   #135
      C0278CH     LINE      ---       ---     ---   #137
      C0279EH     LINE      ---       ---     ---   #138
      C027A8H     LINE      ---       ---     ---   #141
      C027ACH     LINE      ---       ---     ---   #142
      C027B0H     LINE      ---       ---     ---   #144
      C027B4H     LINE      ---       ---     ---   #145
      C027BCH     LINE      ---       ---     ---   #146
      C027C4H     LINE      ---       ---     ---   #147
      C027C8H     LINE      ---       ---     ---   #148
      C027CAH     LINE      ---       ---     ---   #151
      C027D6H     LINE      ---       ---     ---   #152
      C027DEH     LINE      ---       ---     ---   #153
      C027E8H     LINE      ---       ---     ---   #154
      C027E8H     LINE      ---       ---     ---   #157
      C027FEH     LINE      ---       ---     ---   #160
L166 LINKER/LOCATER V5.29.2.0                                                         12/14/2020  10:56:44  PAGE 38


      C02810H     LINE      ---       ---     ---   #161
      C0281CH     LINE      ---       ---     ---   #164
      C02826H     LINE      ---       ---     ---   #165
      C0282CH     LINE      ---       ---     ---   #166
      C0283AH     LINE      ---       ---     ---   #167
      C02842H     LINE      ---       ---     ---   #168
      C02852H     LINE      ---       ---     ---   #170
      C0285AH     LINE      ---       ---     ---   #171
      C0285CH     LINE      ---       ---     ---   #174
      C02864H     LINE      ---       ---     ---   #175
      C0286EH     LINE      ---       ---     ---   #176
      ---         BLOCKEND  LVL=0     ---     ---   

      C02878H     BLOCK     LVL=0     0170H   ---   can_rx
      000048H     SYMBOL    REG       ---     ---   no
      000009H     SYMBOL    REG       ---     ---   id
      00000BH     SYMBOL    REG       ---     ---   mask
      000000H     SYMBOL    AUTO      ---     ---   cfg
      C02878H     BLOCK     LVL=1     016EH   ---   
      000001H     SYMBOL    REG       ---     ---   tmpu16
      ---         BLOCKEND  LVL=1     ---     ---   
      C02878H     LINE      ---       ---     ---   #181
      C02878H     LINE      ---       ---     ---   #182
      C02878H     LINE      ---       ---     ---   #185
      C02882H     LINE      ---       ---     ---   #186
      C02884H     LINE      ---       ---     ---   #192
      C02898H     LINE      ---       ---     ---   #193
      C028A2H     LINE      ---       ---     ---   #198
      C028A6H     LINE      ---       ---     ---   #199
      C028AAH     LINE      ---       ---     ---   #201
      C028AAH     LINE      ---       ---     ---   #202
      C028B4H     LINE      ---       ---     ---   #203
      C028BEH     LINE      ---       ---     ---   #204
      C028CCH     LINE      ---       ---     ---   #206
      C028CEH     LINE      ---       ---     ---   #209
      C028DAH     LINE      ---       ---     ---   #210
      C028E8H     LINE      ---       ---     ---   #211
      C028F8H     LINE      ---       ---     ---   #213
      C028F8H     LINE      ---       ---     ---   #216
      C028FEH     LINE      ---       ---     ---   #218
      C02914H     LINE      ---       ---     ---   #219
      C02922H     LINE      ---       ---     ---   #221
      C02924H     LINE      ---       ---     ---   #224
      C02944H     LINE      ---       ---     ---   #225
      C02956H     LINE      ---       ---     ---   #226
      C02956H     LINE      ---       ---     ---   #229
      C02966H     LINE      ---       ---     ---   #230
      C0296EH     LINE      ---       ---     ---   #231
      C02980H     LINE      ---       ---     ---   #232
      C02988H     LINE      ---       ---     ---   #233
      C0299CH     LINE      ---       ---     ---   #235
      C029A2H     LINE      ---       ---     ---   #238
      C029B4H     LINE      ---       ---     ---   #239
      C029C4H     LINE      ---       ---     ---   #241
      C029C6H     LINE      ---       ---     ---   #245
      C029D6H     LINE      ---       ---     ---   #246
      C029E6H     LINE      ---       ---     ---   #248
L166 LINKER/LOCATER V5.29.2.0                                                         12/14/2020  10:56:44  PAGE 39


      C029E6H     LINE      ---       ---     ---   #250
      ---         BLOCKEND  LVL=0     ---     ---   

      C029E8H     BLOCK     LVL=0     00CAH   ---   can_load
      00004DH     SYMBOL    REG       ---     ---   no
      00000EH     SYMBOL    REG       ---     ---   id
      000000H     SYMBOL    AUTO      ---     ---   cfg
      000002H     SYMBOL    AUTO      ---     ---   buf
      C029F8H     BLOCK     LVL=1     00B0H   ---   
      000008H     SYMBOL    REG       ---     ---   tmpu16
      ---         BLOCKEND  LVL=1     ---     ---   
      C029E8H     LINE      ---       ---     ---   #255
      C029F8H     LINE      ---       ---     ---   #256
      C029F8H     LINE      ---       ---     ---   #259
      C02A0AH     LINE      ---       ---     ---   #260
      C02A16H     LINE      ---       ---     ---   #261
      C02A2EH     LINE      ---       ---     ---   #262
      C02A40H     LINE      ---       ---     ---   #263
      C02A4CH     LINE      ---       ---     ---   #266
      C02A50H     LINE      ---       ---     ---   #267
      C02A56H     LINE      ---       ---     ---   #269
      C02A5AH     LINE      ---       ---     ---   #270
      C02A62H     LINE      ---       ---     ---   #271
      C02A6AH     LINE      ---       ---     ---   #272
      C02A6EH     LINE      ---       ---     ---   #273
      C02A70H     LINE      ---       ---     ---   #276
      C02A7CH     LINE      ---       ---     ---   #277
      C02A84H     LINE      ---       ---     ---   #278
      C02A8EH     LINE      ---       ---     ---   #279
      C02A8EH     LINE      ---       ---     ---   #281
      C02A94H     LINE      ---       ---     ---   #282
      C02A96H     LINE      ---       ---     ---   #285
      C02A9EH     LINE      ---       ---     ---   #286
      C02AA8H     LINE      ---       ---     ---   #287
      ---         BLOCKEND  LVL=0     ---     ---   

      C02AB2H     BLOCK     LVL=0     002CH   ---   can_stx
      000048H     SYMBOL    REG       ---     ---   no
      C02AB2H     LINE      ---       ---     ---   #292
      C02AB2H     LINE      ---       ---     ---   #296
      C02ABEH     LINE      ---       ---     ---   #297
      C02ABEH     LINE      ---       ---     ---   #299
      C02ACAH     LINE      ---       ---     ---   #300
      C02ACAH     LINE      ---       ---     ---   #302
      C02ADCH     LINE      ---       ---     ---   #326
      ---         BLOCKEND  LVL=0     ---     ---   

      C02ADEH     BLOCK     LVL=0     002AH   ---   can_stx_ex
      00004DH     SYMBOL    REG       ---     ---   no
      C02ADEH     LINE      ---       ---     ---   #331
      C02AE2H     LINE      ---       ---     ---   #333
      C02AEEH     LINE      ---       ---     ---   #335
      C02AF6H     LINE      ---       ---     ---   #336
      C02AFAH     LINE      ---       ---     ---   #337
      C02AFAH     LINE      ---       ---     ---   #338
      C02B02H     LINE      ---       ---     ---   #339
      C02B04H     LINE      ---       ---     ---   #340
L166 LINKER/LOCATER V5.29.2.0                                                         12/14/2020  10:56:44  PAGE 40


      ---         BLOCKEND  LVL=0     ---     ---   

      C02B08H     BLOCK     LVL=0     0014H   ---   can_abort
      000048H     SYMBOL    REG       ---     ---   no
      C02B08H     LINE      ---       ---     ---   #345
      C02B08H     LINE      ---       ---     ---   #347
      C02B1AH     LINE      ---       ---     ---   #348
      ---         BLOCKEND  LVL=0     ---     ---   

      C02B1CH     BLOCK     LVL=0     001AH   ---   can_busy
      000048H     SYMBOL    REG       ---     ---   no
      C02B1CH     LINE      ---       ---     ---   #353
      C02B1CH     LINE      ---       ---     ---   #355
      C02B34H     LINE      ---       ---     ---   #356
      ---         BLOCKEND  LVL=0     ---     ---   

      C02B36H     BLOCK     LVL=0     004EH   ---   can_sload
      00004DH     SYMBOL    REG       ---     ---   no
      000006H     SYMBOL    REG       ---     ---   buf
      C02B36H     LINE      ---       ---     ---   #361
      C02B3EH     LINE      ---       ---     ---   #363
      C02B4EH     LINE      ---       ---     ---   #364
      C02B62H     LINE      ---       ---     ---   #365
      C02B74H     LINE      ---       ---     ---   #366
      C02B80H     LINE      ---       ---     ---   #367
      ---         BLOCKEND  LVL=0     ---     ---   

      C02B84H     BLOCK     LVL=0     018AH   ---   isr_can_txrx0
      C02BACH     BLOCK     LVL=1     013CH   ---   
      000005H     SYMBOL    REG       ---     ---   nodeinfo
      000005H     SYMBOL    REG       ---     ---   objinfo
      00004DH     SYMBOL    REG       ---     ---   objno
      000002H     SYMBOL    REG       ---     ---   id
      ---         BLOCKEND  LVL=1     ---     ---   
      C02B84H     LINE      ---       ---     ---   #372
      C02BACH     LINE      ---       ---     ---   #373
      C02BACH     LINE      ---       ---     ---   #379
      C02BB4H     LINE      ---       ---     ---   #381
      C02BB8H     LINE      ---       ---     ---   #383
      C02BC4H     LINE      ---       ---     ---   #384
      C02BCAH     LINE      ---       ---     ---   #385
      C02BCAH     LINE      ---       ---     ---   #387
      C02BCEH     LINE      ---       ---     ---   #389
      C02BDAH     LINE      ---       ---     ---   #390
      C02BE0H     LINE      ---       ---     ---   #391
      C02BE0H     LINE      ---       ---     ---   #393
      C02BECH     LINE      ---       ---     ---   #394
      C02BF6H     LINE      ---       ---     ---   #398
      C02BF8H     LINE      ---       ---     ---   #400
      C02C02H     LINE      ---       ---     ---   #401
      C02C10H     LINE      ---       ---     ---   #403
      C02C14H     LINE      ---       ---     ---   #405
      C02C18H     LINE      ---       ---     ---   #407
      C02C2EH     LINE      ---       ---     ---   #408
      C02C32H     LINE      ---       ---     ---   #409
      C02C46H     LINE      ---       ---     ---   #410
      C02C58H     LINE      ---       ---     ---   #411
L166 LINKER/LOCATER V5.29.2.0                                                         12/14/2020  10:56:44  PAGE 41


      C02C5EH     LINE      ---       ---     ---   #414
      C02C94H     LINE      ---       ---     ---   #415
      C02C94H     LINE      ---       ---     ---   #416
      C02CA6H     LINE      ---       ---     ---   #417
      C02CA6H     LINE      ---       ---     ---   #418
      C02CAEH     LINE      ---       ---     ---   #419
      C02CBEH     LINE      ---       ---     ---   #420
      C02CC6H     LINE      ---       ---     ---   #421
      C02CDAH     LINE      ---       ---     ---   #422
      C02CE8H     LINE      ---       ---     ---   #423
      ---         BLOCKEND  LVL=0     ---     ---   

      C02D0EH     BLOCK     LVL=0     005AH   ---   isr_can_status
      C02D16H     BLOCK     LVL=1     004AH   ---   
      000005H     SYMBOL    REG       ---     ---   nodeinfo
      ---         BLOCKEND  LVL=1     ---     ---   
      C02D0EH     LINE      ---       ---     ---   #428
      C02D16H     LINE      ---       ---     ---   #429
      C02D16H     LINE      ---       ---     ---   #432
      C02D1EH     LINE      ---       ---     ---   #434
      C02D22H     LINE      ---       ---     ---   #435
      C02D22H     LINE      ---       ---     ---   #438
      C02D26H     LINE      ---       ---     ---   #441
      C02D2CH     LINE      ---       ---     ---   #442
      C02D2CH     LINE      ---       ---     ---   #446
      C02D30H     LINE      ---       ---     ---   #453
      C02D3CH     LINE      ---       ---     ---   #454
      C02D3CH     LINE      ---       ---     ---   #456
      C02D40H     LINE      ---       ---     ---   #463
      C02D4CH     LINE      ---       ---     ---   #464
      C02D4CH     LINE      ---       ---     ---   #466
      C02D54H     LINE      ---       ---     ---   #468
      C02D54H     LINE      ---       ---     ---   #470
      C02D60H     LINE      ---       ---     ---   #472
      ---         BLOCKEND  LVL=0     ---     ---   

      C02D68H     BLOCK     LVL=0     0030H   ---   isr_can_error
      C02D72H     BLOCK     LVL=1     001CH   ---   
      000005H     SYMBOL    REG       ---     ---   nodeinfo
      ---         BLOCKEND  LVL=1     ---     ---   
      C02D68H     LINE      ---       ---     ---   #477
      C02D72H     LINE      ---       ---     ---   #478
      C02D72H     LINE      ---       ---     ---   #482
      C02D7AH     LINE      ---       ---     ---   #484
      C02D80H     LINE      ---       ---     ---   #485
      C02D80H     LINE      ---       ---     ---   #487
      C02D82H     LINE      ---       ---     ---   #489
      C02D82H     LINE      ---       ---     ---   #494
      C02D82H     LINE      ---       ---     ---   #496
      C02D82H     LINE      ---       ---     ---   #500
      C02D82H     LINE      ---       ---     ---   #502
      C02D82H     LINE      ---       ---     ---   #506
      C02D82H     LINE      ---       ---     ---   #508
      C02D82H     LINE      ---       ---     ---   #514
      C02D82H     LINE      ---       ---     ---   #516
      C02D82H     LINE      ---       ---     ---   #527
      C02D82H     LINE      ---       ---     ---   #530
L166 LINKER/LOCATER V5.29.2.0                                                         12/14/2020  10:56:44  PAGE 42


      C02D82H     LINE      ---       ---     ---   #533
      C02D82H     LINE      ---       ---     ---   #534
      C02D82H     LINE      ---       ---     ---   #536
      C02D82H     LINE      ---       ---     ---   #540
      C02D82H     LINE      ---       ---     ---   #542
      C02D82H     LINE      ---       ---     ---   #543
      C02D82H     LINE      ---       ---     ---   #544
      C02D82H     LINE      ---       ---     ---   #545
      C02D8EH     LINE      ---       ---     ---   #546
      ---         BLOCKEND  LVL=0     ---     ---   

      C02D98H     BLOCK     LVL=0     001EH   ---   set_can_on
      C02D98H     LINE      ---       ---     ---   #551
      C02D98H     LINE      ---       ---     ---   #553
      C02DACH     LINE      ---       ---     ---   #554
      C02DB4H     LINE      ---       ---     ---   #555
      ---         BLOCKEND  LVL=0     ---     ---   

      C02DB6H     BLOCK     LVL=0     0010H   ---   get_can_bus_off
      C02DB6H     LINE      ---       ---     ---   #560
      C02DB6H     LINE      ---       ---     ---   #564
      C02DBEH     LINE      ---       ---     ---   #565
      C02DC2H     LINE      ---       ---     ---   #567
      C02DC4H     LINE      ---       ---     ---   #568
      ---         BLOCKEND  LVL=0     ---     ---   

      C02DC6H     BLOCK     LVL=0     0004H   ---   can_txx
      000008H     SYMBOL    REG       ---     ---   id
      00000AH     SYMBOL    REG       ---     ---   buf
      C02DC6H     LINE      ---       ---     ---   #573
      C02DC6H     LINE      ---       ---     ---   #578
      C02DC8H     LINE      ---       ---     ---   #579
      ---         BLOCKEND  LVL=0     ---     ---   

      C02DCAH     BLOCK     LVL=0     0004H   ---   can_settingx
      000008H     SYMBOL    REG       ---     ---   baudrate
      00004AH     SYMBOL    REG       ---     ---   option
      C02DCAH     LINE      ---       ---     ---   #584
      C02DCAH     LINE      ---       ---     ---   #589
      C02DCCH     LINE      ---       ---     ---   #590
      ---         BLOCKEND  LVL=0     ---     ---   
      C04A08H     PUBLIC    LABEL     ---     ---   cc6_setting
      C04DECH     PUBLIC    LABEL     ---     ---   isr_cc27
      C04DEAH     PUBLIC    LABEL     ---     ---   isr_cc26
      C049D8H     PUBLIC    LABEL     ---     ---   cc2_setting
      C04D0EH     PUBLIC    LABEL     ---     ---   isr_cc23
      C04C38H     PUBLIC    LABEL     ---     ---   isr_cc22
      C04B5CH     PUBLIC    LABEL     ---     ---   isr_cc21
      C04A80H     PUBLIC    LABEL     ---     ---   isr_cc20
      C0001CH     PUBLIC    VAR       ---     ---   G_PWM_EX_PERIOD_STD
      E003DCH     PUBLIC    VAR       ---     ---   tmpu32
      E003E0H     PUBLIC    VAR       ---     ---   g_disp_value_sent
      E003E2H     PUBLIC    VAR       ---     ---   timer7_val
      00AA22H     PUBLIC    VAR       ---     ---   g_pwm_ex_duty_uw
      00AA2EH     PUBLIC    VAR       ---     ---   g_pwm_ex_timestamp0
      00AA3AH     PUBLIC    VAR       ---     ---   g_pwm_ex_timestamp0_r
      00AA46H     PUBLIC    VAR       ---     ---   g_pwm_ex_timestamp
L166 LINKER/LOCATER V5.29.2.0                                                         12/14/2020  10:56:44  PAGE 43


      00AA52H     PUBLIC    VAR       ---     ---   g_pwm_ex_period_uw

      C049D8H     BLOCK     LVL=0     0030H   ---   cc2_setting
      C049DAH     BLOCK     LVL=1     002AH   ---   
      000000H     SYMBOL    AUTO      ---     ---   uwTemp
      ---         BLOCKEND  LVL=1     ---     ---   
      C049D8H     LINE      ---       ---     ---   #50
      C049DAH     LINE      ---       ---     ---   #51
      C049DAH     LINE      ---       ---     ---   #60
      C049DEH     LINE      ---       ---     ---   #63
      C049E4H     LINE      ---       ---     ---   #70
      C049EAH     LINE      ---       ---     ---   #87
      C049EEH     LINE      ---       ---     ---   #90
      C049F4H     LINE      ---       ---     ---   #92
      C049F8H     LINE      ---       ---     ---   #187
      C049FCH     LINE      ---       ---     ---   #203
      C04A02H     LINE      ---       ---     ---   #204
      C04A04H     LINE      ---       ---     ---   #206
      ---         BLOCKEND  LVL=0     ---     ---   

      C04A08H     BLOCK     LVL=0     0078H   ---   cc6_setting
      C04A08H     LINE      ---       ---     ---   #211
      C04A08H     LINE      ---       ---     ---   #213
      C04A0EH     LINE      ---       ---     ---   #214
      C04A12H     LINE      ---       ---     ---   #215
      C04A16H     LINE      ---       ---     ---   #217
      C04A1CH     LINE      ---       ---     ---   #219
      C04A24H     LINE      ---       ---     ---   #220
      C04A28H     LINE      ---       ---     ---   #222
      C04A30H     LINE      ---       ---     ---   #223
      C04A38H     LINE      ---       ---     ---   #225
      C04A3EH     LINE      ---       ---     ---   #226
      C04A42H     LINE      ---       ---     ---   #227
      C04A46H     LINE      ---       ---     ---   #229
      C04A4EH     LINE      ---       ---     ---   #230
      C04A56H     LINE      ---       ---     ---   #231
      C04A5EH     LINE      ---       ---     ---   #232
      C04A66H     LINE      ---       ---     ---   #233
      C04A6EH     LINE      ---       ---     ---   #235
      C04A76H     LINE      ---       ---     ---   #245
      C04A7EH     LINE      ---       ---     ---   #246
      ---         BLOCKEND  LVL=0     ---     ---   

      C04A80H     BLOCK     LVL=0     00DCH   ---   isr_cc20
      C04AA2H     BLOCK     LVL=1     009AH   ---   
      000008H     SYMBOL    REG       ---     ---   tmpu16
      00000AH     SYMBOL    REG       ---     ---   tmpu32
      ---         BLOCKEND  LVL=1     ---     ---   
      C04A80H     LINE      ---       ---     ---   #284
      C04AA2H     LINE      ---       ---     ---   #286
      C04B3CH     LINE      ---       ---     ---   #287
      ---         BLOCKEND  LVL=0     ---     ---   

      C04B5CH     BLOCK     LVL=0     00DCH   ---   isr_cc21
      C04B7EH     BLOCK     LVL=1     009AH   ---   
      000008H     SYMBOL    REG       ---     ---   tmpu16
      00000AH     SYMBOL    REG       ---     ---   tmpu32
L166 LINKER/LOCATER V5.29.2.0                                                         12/14/2020  10:56:44  PAGE 44


      ---         BLOCKEND  LVL=1     ---     ---   
      C04B5CH     LINE      ---       ---     ---   #290
      C04B7EH     LINE      ---       ---     ---   #292
      C04C18H     LINE      ---       ---     ---   #293
      ---         BLOCKEND  LVL=0     ---     ---   

      C04C38H     BLOCK     LVL=0     00D6H   ---   isr_cc22
      C04C38H     LINE      ---       ---     ---   #300
      C04C5EH     LINE      ---       ---     ---   #303
      C04C62H     LINE      ---       ---     ---   #305
      C04C66H     LINE      ---       ---     ---   #306
      C04C6CH     LINE      ---       ---     ---   #307
      C04C7CH     LINE      ---       ---     ---   #309
      C04C8EH     LINE      ---       ---     ---   #310
      C04CA4H     LINE      ---       ---     ---   #311
      C04CB6H     LINE      ---       ---     ---   #312
      C04CD0H     LINE      ---       ---     ---   #313
      C04CE2H     LINE      ---       ---     ---   #314
      C04CEAH     LINE      ---       ---     ---   #315
      C04CEAH     LINE      ---       ---     ---   #320
      ---         BLOCKEND  LVL=0     ---     ---   

      C04D0EH     BLOCK     LVL=0     00DCH   ---   isr_cc23
      C04D30H     BLOCK     LVL=1     009AH   ---   
      000008H     SYMBOL    REG       ---     ---   tmpu16
      00000AH     SYMBOL    REG       ---     ---   tmpu32
      ---         BLOCKEND  LVL=1     ---     ---   
      C04D0EH     LINE      ---       ---     ---   #323
      C04D30H     LINE      ---       ---     ---   #325
      C04DCAH     LINE      ---       ---     ---   #326
      ---         BLOCKEND  LVL=0     ---     ---   

      C04DEAH     BLOCK     LVL=0     0002H   ---   isr_cc26
      C04DEAH     LINE      ---       ---     ---   #329
      C04DEAH     LINE      ---       ---     ---   #331
      ---         BLOCKEND  LVL=0     ---     ---   

      C04DECH     BLOCK     LVL=0     0002H   ---   isr_cc27
      C04DECH     LINE      ---       ---     ---   #334
      C04DECH     LINE      ---       ---     ---   #336
      ---         BLOCKEND  LVL=0     ---     ---   
      C06624H     PUBLIC    LABEL     ---     ---   spi_tle9180d_31qk_putc
      C0663CH     PUBLIC    LABEL     ---     ---   spi_tle9180d_31qk_trans
      C0653CH     PUBLIC    LABEL     ---     ---   tle9180d_31qk_init
      00AA82H     PUBLIC    VAR       ---     ---   TLE9180D_Conf_Reg

      C0653CH     BLOCK     LVL=0     00E8H   ---   tle9180d_31qk_init
      C0653EH     BLOCK     LVL=1     00E2H   ---   
      000000H     SYMBOL    AUTO      ---     ---   uwTemp
      ---         BLOCKEND  LVL=1     ---     ---   
      C0653CH     LINE      ---       ---     ---   #150
      C0653EH     LINE      ---       ---     ---   #151
      C0653EH     LINE      ---       ---     ---   #164
      C06548H     LINE      ---       ---     ---   #167
      C0654EH     LINE      ---       ---     ---   #177
      C06558H     LINE      ---       ---     ---   #187
      C06564H     LINE      ---       ---     ---   #198
L166 LINKER/LOCATER V5.29.2.0                                                         12/14/2020  10:56:44  PAGE 45


      C0656EH     LINE      ---       ---     ---   #203
      C0657AH     LINE      ---       ---     ---   #211
      C06586H     LINE      ---       ---     ---   #218
      C06590H     LINE      ---       ---     ---   #220
      C06594H     LINE      ---       ---     ---   #228
      C065A0H     LINE      ---       ---     ---   #229
      C065ACH     LINE      ---       ---     ---   #235
      C065B8H     LINE      ---       ---     ---   #237
      C065C2H     LINE      ---       ---     ---   #244
      C065CEH     LINE      ---       ---     ---   #245
      C065D8H     LINE      ---       ---     ---   #252
      C065E6H     LINE      ---       ---     ---   #263
      C065F2H     LINE      ---       ---     ---   #268
      C065FAH     LINE      ---       ---     ---   #274
      C06602H     LINE      ---       ---     ---   #275
      C06606H     LINE      ---       ---     ---   #276
      C0660AH     LINE      ---       ---     ---   #290
      C06614H     LINE      ---       ---     ---   #292
      C06620H     LINE      ---       ---     ---   #295
      ---         BLOCKEND  LVL=0     ---     ---   

      C06624H     BLOCK     LVL=0     0018H   ---   spi_tle9180d_31qk_putc
      000008H     SYMBOL    REG       ---     ---   ch
      C06624H     LINE      ---       ---     ---   #298
      C06624H     LINE      ---       ---     ---   #300
      C06636H     LINE      ---       ---     ---   #301
      C0663AH     LINE      ---       ---     ---   #302
      ---         BLOCKEND  LVL=0     ---     ---   

      C0663CH     BLOCK     LVL=0     0080H   ---   spi_tle9180d_31qk_trans
      000008H     SYMBOL    REG       ---     ---   ch
      C0663CH     BLOCK     LVL=1     0022H   ---   
      000007H     SYMBOL    REG       ---     ---   tm0
      000006H     SYMBOL    REG       ---     ---   tm1
      ---         BLOCKEND  LVL=1     ---     ---   
      C06674H     BLOCK     LVL=1     002EH   ---   
      000007H     SYMBOL    REG       ---     ---   tm0
      000006H     SYMBOL    REG       ---     ---   tm1
      ---         BLOCKEND  LVL=1     ---     ---   
      C0663CH     LINE      ---       ---     ---   #305
      C0663CH     LINE      ---       ---     ---   #307
      C0665EH     LINE      ---       ---     ---   #309
      C06670H     LINE      ---       ---     ---   #310
      C06674H     LINE      ---       ---     ---   #313
      C066A2H     LINE      ---       ---     ---   #314
      C066B6H     LINE      ---       ---     ---   #315
      C066BAH     LINE      ---       ---     ---   #316
      ---         BLOCKEND  LVL=0     ---     ---   
      C07026H     PUBLIC    LABEL     ---     ---   can_test_exit
      C07010H     PUBLIC    LABEL     ---     ---   can_test_init
      C07028H     PUBLIC    LABEL     ---     ---   do_objx
      C0701CH     PUBLIC    LABEL     ---     ---   can_test_enter
      C0700AH     PUBLIC    LABEL     ---     ---   can_test_on
      E003CAH     PUBLIC    VAR       ---     ---   g_canid
      E003CCH     PUBLIC    VAR       ---     ---   g_test_u32
      E003D0H     PUBLIC    VAR       ---     ---   g_ctrl_timeout
      E003D1H     PUBLIC    VAR       ---     ---   can_test_timeout
L166 LINKER/LOCATER V5.29.2.0                                                         12/14/2020  10:56:44  PAGE 46


      E003D2H     PUBLIC    VAR       ---     ---   g_canlen
      00AAA8H     PUBLIC    VAR       ---     ---   g_canbuf

      C0700AH     BLOCK     LVL=0     0006H   ---   can_test_on
      C0700AH     LINE      ---       ---     ---   #29
      C0700AH     LINE      ---       ---     ---   #31
      C0700EH     LINE      ---       ---     ---   #32
      ---         BLOCKEND  LVL=0     ---     ---   

      C07010H     BLOCK     LVL=0     000CH   ---   can_test_init
      C07010H     LINE      ---       ---     ---   #37
      C07010H     LINE      ---       ---     ---   #39
      C07014H     LINE      ---       ---     ---   #40
      C07018H     LINE      ---       ---     ---   #42
      C0701AH     LINE      ---       ---     ---   #43
      ---         BLOCKEND  LVL=0     ---     ---   

      C0701CH     BLOCK     LVL=0     000AH   ---   can_test_enter
      C0701CH     LINE      ---       ---     ---   #48
      C0701CH     LINE      ---       ---     ---   #50
      C07024H     LINE      ---       ---     ---   #51
      ---         BLOCKEND  LVL=0     ---     ---   

      C07026H     BLOCK     LVL=0     0002H   ---   can_test_exit
      C07026H     LINE      ---       ---     ---   #56
      C07026H     LINE      ---       ---     ---   #58
      ---         BLOCKEND  LVL=0     ---     ---   

      C07028H     BLOCK     LVL=0     0024H   ---   do_objx
      000048H     SYMBOL    REG       ---     ---   no
      000006H     SYMBOL    REG       ---     ---   id
      000002H     SYMBOL    REG       ---     ---   buf
      000000H     SYMBOL    AUTO      ---     ---   len
      C07028H     LINE      ---       ---     ---   #63
      C07030H     LINE      ---       ---     ---   #65
      C07032H     LINE      ---       ---     ---   #68
      C07032H     LINE      ---       ---     ---   #69
      C07032H     LINE      ---       ---     ---   #71
      C07032H     LINE      ---       ---     ---   #73
      C07032H     LINE      ---       ---     ---   #76
      C07032H     LINE      ---       ---     ---   #77
      C07032H     LINE      ---       ---     ---   #78
      C07032H     LINE      ---       ---     ---   #80
      C0704AH     LINE      ---       ---     ---   #81
      ---         BLOCKEND  LVL=0     ---     ---   
      C000B7H     PUBLIC    VAR       ---     ---   lib_eol_diag_version
      C07088H     PUBLIC    LABEL     ---     ---   diag_hw_init
      C070BCH     PUBLIC    LABEL     ---     ---   diag_out_hook
      C070BAH     PUBLIC    LABEL     ---     ---   diag_in_hook
      C070A8H     PUBLIC    LABEL     ---     ---   diag_main_loop_hook
      C070A6H     PUBLIC    LABEL     ---     ---   do_spi_char
      E003F2H     PUBLIC    VAR       ---     ---   g_diag_stat
      E003F3H     PUBLIC    VAR       ---     ---   sys_health

      C07088H     BLOCK     LVL=0     001EH   ---   diag_hw_init
      C07088H     LINE      ---       ---     ---   #27
      C07088H     LINE      ---       ---     ---   #29
L166 LINKER/LOCATER V5.29.2.0                                                         12/14/2020  10:56:44  PAGE 47


      C0708CH     LINE      ---       ---     ---   #31
      C07090H     LINE      ---       ---     ---   #32
      C07094H     LINE      ---       ---     ---   #34
      C07098H     LINE      ---       ---     ---   #36
      C070A0H     LINE      ---       ---     ---   #37
      C070A4H     LINE      ---       ---     ---   #38
      ---         BLOCKEND  LVL=0     ---     ---   

      C070A6H     BLOCK     LVL=0     0002H   ---   do_spi_char
      000048H     SYMBOL    REG       ---     ---   ch
      C070A6H     LINE      ---       ---     ---   #42
      C070A6H     LINE      ---       ---     ---   #45
      ---         BLOCKEND  LVL=0     ---     ---   

      C070A8H     BLOCK     LVL=0     0012H   ---   diag_main_loop_hook
      C070A8H     LINE      ---       ---     ---   #49
      C070A8H     LINE      ---       ---     ---   #53
      C070ACH     LINE      ---       ---     ---   #54
      C070B0H     LINE      ---       ---     ---   #57
      C070B4H     LINE      ---       ---     ---   #60
      C070B8H     LINE      ---       ---     ---   #63
      ---         BLOCKEND  LVL=0     ---     ---   

      C070BAH     BLOCK     LVL=0     0002H   ---   diag_in_hook
      C070BAH     LINE      ---       ---     ---   #67
      C070BAH     LINE      ---       ---     ---   #70
      ---         BLOCKEND  LVL=0     ---     ---   

      C070BCH     BLOCK     LVL=0     0002H   ---   diag_out_hook
      C070BCH     LINE      ---       ---     ---   #74
      C070BCH     LINE      ---       ---     ---   #76
      ---         BLOCKEND  LVL=0     ---     ---   
      C0704CH     PUBLIC    LABEL     ---     ---   dtc_man_init
      C07058H     PUBLIC    LABEL     ---     ---   dtc_del_all
      C0706CH     PUBLIC    LABEL     ---     ---   eeprom_wr_hook
      C0705CH     PUBLIC    LABEL     ---     ---   dtc_list
      C07054H     PUBLIC    LABEL     ---     ---   dtc_del
      C07060H     PUBLIC    LABEL     ---     ---   dtc_info
      C07064H     PUBLIC    LABEL     ---     ---   ign_add
      C07050H     PUBLIC    LABEL     ---     ---   dtc_add
      C07068H     PUBLIC    LABEL     ---     ---   dtc_man_nsr
      C0400CH     PUBLIC    VAR       ---     ---   EE_VER
      E00334H     PUBLIC    VAR       ---     ---   gee_dirty1
      E00336H     PUBLIC    VAR       ---     ---   gdtc_buf
      E0033AH     PUBLIC    VAR       ---     ---   gee_dirty
      E0033CH     PUBLIC    VAR       ---     ---   gpara_buf
      E00340H     PUBLIC    VAR       ---     ---   dtc_pt
      E00344H     PUBLIC    VAR       ---     ---   gee_dirty2
      E00345H     PUBLIC    VAR       ---     ---   gee_cmd_bak
      E00346H     PUBLIC    VAR       ---     ---   gdtc_num
      E00347H     PUBLIC    VAR       ---     ---   gee_stat
      E00348H     PUBLIC    VAR       ---     ---   gee_cmd
      E00349H     PUBLIC    VAR       ---     ---   gdtc_num_active
      00A842H     PUBLIC    VAR       ---     ---   gee_buf
      00A8C2H     PUBLIC    VAR       ---     ---   gee_dat

      C0704CH     BLOCK     LVL=0     0004H   ---   dtc_man_init
L166 LINKER/LOCATER V5.29.2.0                                                         12/14/2020  10:56:44  PAGE 48


      C0704CH     LINE      ---       ---     ---   #39
      C0704CH     LINE      ---       ---     ---   #41
      C0704EH     LINE      ---       ---     ---   #42
      ---         BLOCKEND  LVL=0     ---     ---   

      C07050H     BLOCK     LVL=0     0004H   ---   dtc_add
      000048H     SYMBOL    REG       ---     ---   id
      000049H     SYMBOL    REG       ---     ---   fm
      00004AH     SYMBOL    REG       ---     ---   env
      C07050H     LINE      ---       ---     ---   #46
      C07050H     LINE      ---       ---     ---   #52
      C07052H     LINE      ---       ---     ---   #53
      ---         BLOCKEND  LVL=0     ---     ---   

      C07054H     BLOCK     LVL=0     0004H   ---   dtc_del
      000048H     SYMBOL    REG       ---     ---   id
      000049H     SYMBOL    REG       ---     ---   flag
      C07054H     LINE      ---       ---     ---   #57
      C07054H     LINE      ---       ---     ---   #62
      C07056H     LINE      ---       ---     ---   #63
      ---         BLOCKEND  LVL=0     ---     ---   

      C07058H     BLOCK     LVL=0     0004H   ---   dtc_del_all
      C07058H     LINE      ---       ---     ---   #66
      C07058H     LINE      ---       ---     ---   #68
      C0705AH     LINE      ---       ---     ---   #69
      ---         BLOCKEND  LVL=0     ---     ---   

      C0705CH     BLOCK     LVL=0     0004H   ---   dtc_list
      000048H     SYMBOL    REG       ---     ---   type
      000009H     SYMBOL    REG       ---     ---   buf
      C0705CH     LINE      ---       ---     ---   #75
      C0705CH     LINE      ---       ---     ---   #80
      C0705EH     LINE      ---       ---     ---   #81
      ---         BLOCKEND  LVL=0     ---     ---   

      C07060H     BLOCK     LVL=0     0004H   ---   dtc_info
      000048H     SYMBOL    REG       ---     ---   id
      000009H     SYMBOL    REG       ---     ---   buf
      C07060H     LINE      ---       ---     ---   #85
      C07060H     LINE      ---       ---     ---   #90
      C07062H     LINE      ---       ---     ---   #91
      ---         BLOCKEND  LVL=0     ---     ---   

      C07064H     BLOCK     LVL=0     0004H   ---   ign_add
      C07064H     LINE      ---       ---     ---   #95
      C07064H     LINE      ---       ---     ---   #97
      C07066H     LINE      ---       ---     ---   #98
      ---         BLOCKEND  LVL=0     ---     ---   

      C07068H     BLOCK     LVL=0     0004H   ---   dtc_man_nsr
      C07068H     LINE      ---       ---     ---   #101
      C07068H     LINE      ---       ---     ---   #103
      C0706AH     LINE      ---       ---     ---   #104
      ---         BLOCKEND  LVL=0     ---     ---   

      C0706CH     BLOCK     LVL=0     001CH   ---   eeprom_wr_hook
L166 LINKER/LOCATER V5.29.2.0                                                         12/14/2020  10:56:44  PAGE 49


      000005H     SYMBOL    REG       ---     ---   addr
      000049H     SYMBOL    REG       ---     ---   len
      000006H     SYMBOL    REG       ---     ---   buf
      C0706CH     LINE      ---       ---     ---   #108
      C07072H     LINE      ---       ---     ---   #110
      C07084H     LINE      ---       ---     ---   #111
      C07086H     LINE      ---       ---     ---   #112
      ---         BLOCKEND  LVL=0     ---     ---   
      C06EC4H     PUBLIC    LABEL     ---     ---   system_dtc_handling
      C06E24H     PUBLIC    LABEL     ---     ---   diag_timer_50ms_hook
      C06E04H     PUBLIC    LABEL     ---     ---   do_mcu2_msg
      C06E06H     PUBLIC    LABEL     ---     ---   diag_timer_10ms_hook
      C06E00H     PUBLIC    LABEL     ---     ---   mcu1_imp_init
      C06E02H     PUBLIC    LABEL     ---     ---   do_mcu1
      C06E32H     PUBLIC    LABEL     ---     ---   system_quick_diag
      E003F6H     PUBLIC    VAR       ---     ---   g_sys_dtc_uw
      E003F9H     PUBLIC    VAR       ---     ---   mcu2_status
      00A992H     PUBLIC    VAR       ---     ---   mcumsgdat
      00A9ABH     PUBLIC    VAR       ---     ---   mcumsg2
      00A9C4H     PUBLIC    VAR       ---     ---   mcumsg1

      C06E00H     BLOCK     LVL=0     0002H   ---   mcu1_imp_init
      C06E00H     LINE      ---       ---     ---   #55
      C06E00H     LINE      ---       ---     ---   #57
      ---         BLOCKEND  LVL=0     ---     ---   

      C06E02H     BLOCK     LVL=0     0002H   ---   do_mcu1
      C06E02H     LINE      ---       ---     ---   #61
      C06E02H     LINE      ---       ---     ---   #63
      ---         BLOCKEND  LVL=0     ---     ---   

      C06E04H     BLOCK     LVL=0     0002H   ---   do_mcu2_msg
      C06E04H     LINE      ---       ---     ---   #67
      C06E04H     LINE      ---       ---     ---   #70
      ---         BLOCKEND  LVL=0     ---     ---   

      C06E06H     BLOCK     LVL=0     001EH   ---   diag_timer_10ms_hook
      C06E06H     BLOCK     LVL=1     001CH   ---   
      E003F8H     SYMBOL    VAR       ---     ---   tmx
      ---         BLOCKEND  LVL=1     ---     ---   
      C06E06H     LINE      ---       ---     ---   #74
      C06E06H     LINE      ---       ---     ---   #75
      C06E06H     LINE      ---       ---     ---   #78
      C06E12H     LINE      ---       ---     ---   #80
      C06E16H     LINE      ---       ---     ---   #81
      C06E1AH     LINE      ---       ---     ---   #82
      C06E1AH     LINE      ---       ---     ---   #84
      C06E1EH     LINE      ---       ---     ---   #85
      C06E22H     LINE      ---       ---     ---   #86
      ---         BLOCKEND  LVL=0     ---     ---   

      C06E24H     BLOCK     LVL=0     000EH   ---   diag_timer_50ms_hook
      C06E24H     LINE      ---       ---     ---   #89
      C06E24H     LINE      ---       ---     ---   #93
      C06E28H     LINE      ---       ---     ---   #94
      C06E2CH     LINE      ---       ---     ---   #96
      C06E30H     LINE      ---       ---     ---   #97
L166 LINKER/LOCATER V5.29.2.0                                                         12/14/2020  10:56:44  PAGE 50


      ---         BLOCKEND  LVL=0     ---     ---   

      C06E32H     BLOCK     LVL=0     0092H   ---   system_quick_diag
      C06E34H     BLOCK     LVL=1     008CH   ---   
      00000DH     SYMBOL    REG       ---     ---   tmpu16
      ---         BLOCKEND  LVL=1     ---     ---   
      C06E32H     LINE      ---       ---     ---   #101
      C06E34H     LINE      ---       ---     ---   #102
      C06E34H     LINE      ---       ---     ---   #110
      C06E3EH     LINE      ---       ---     ---   #111
      C06E4AH     LINE      ---       ---     ---   #112
      C06E52H     LINE      ---       ---     ---   #114
      C06E5AH     LINE      ---       ---     ---   #118
      C06E64H     LINE      ---       ---     ---   #119
      C06E70H     LINE      ---       ---     ---   #120
      C06E78H     LINE      ---       ---     ---   #122
      C06E80H     LINE      ---       ---     ---   #126
      C06E90H     LINE      ---       ---     ---   #127
      C06E9CH     LINE      ---       ---     ---   #128
      C06EA4H     LINE      ---       ---     ---   #130
      C06EACH     LINE      ---       ---     ---   #134
      C06EB4H     LINE      ---       ---     ---   #136
      C06EB6H     LINE      ---       ---     ---   #137
      C06EBCH     LINE      ---       ---     ---   #138
      C06EBEH     LINE      ---       ---     ---   #141
      C06EC0H     LINE      ---       ---     ---   #142
      C06EC0H     LINE      ---       ---     ---   #181
      ---         BLOCKEND  LVL=0     ---     ---   

      C06EC4H     BLOCK     LVL=0     0002H   ---   system_dtc_handling
      C06EC4H     LINE      ---       ---     ---   #186
      C06EC4H     LINE      ---       ---     ---   #188
      C06EC4H     LINE      ---       ---     ---   #189
      C06EC4H     LINE      ---       ---     ---   #190
      ---         BLOCKEND  LVL=0     ---     ---   
      C0715CH     PUBLIC    LABEL     ---     ---   do_mcu2_task_10ms_hook
      C0716AH     PUBLIC    LABEL     ---     ---   do_mcu2_taskx_10ms_hook
      C07158H     PUBLIC    LABEL     ---     ---   do_mcu2_task_init
      C07164H     PUBLIC    LABEL     ---     ---   do_mcu2_taskx_init
      C0715AH     PUBLIC    LABEL     ---     ---   do_mcu2_task
      C07166H     PUBLIC    LABEL     ---     ---   do_mcu2_taskx
      C0715EH     PUBLIC    LABEL     ---     ---   trans_actuator_num
      C07162H     PUBLIC    LABEL     ---     ---   update_comp_monitor
      E003C0H     PUBLIC    VAR       ---     ---   gmisc_task_tout
      E003C2H     PUBLIC    VAR       ---     ---   free_cnt1
      E003C3H     PUBLIC    VAR       ---     ---   free_cnt0
      E003C4H     PUBLIC    VAR       ---     ---   task_type
      E003C5H     PUBLIC    VAR       ---     ---   task_stat
      E003C6H     PUBLIC    VAR       ---     ---   gmisc_task_stat
      E003C7H     PUBLIC    VAR       ---     ---   task_ctrl_valid
      E003C8H     PUBLIC    VAR       ---     ---   gmisc_task
      E003C9H     PUBLIC    VAR       ---     ---   task_sub_type
      00AA5EH     PUBLIC    VAR       ---     ---   comp_toutx
      00AA72H     PUBLIC    VAR       ---     ---   gmisc_task_option

      C07158H     BLOCK     LVL=0     0002H   ---   do_mcu2_task_init
      C07158H     LINE      ---       ---     ---   #50
L166 LINKER/LOCATER V5.29.2.0                                                         12/14/2020  10:56:44  PAGE 51


      C07158H     LINE      ---       ---     ---   #52
      ---         BLOCKEND  LVL=0     ---     ---   

      C0715AH     BLOCK     LVL=0     0002H   ---   do_mcu2_task
      C0715AH     LINE      ---       ---     ---   #64
      C0715AH     LINE      ---       ---     ---   #67
      ---         BLOCKEND  LVL=0     ---     ---   

      C0715CH     BLOCK     LVL=0     0002H   ---   do_mcu2_task_10ms_hook
      C0715CH     LINE      ---       ---     ---   #71
      C0715CH     LINE      ---       ---     ---   #73
      ---         BLOCKEND  LVL=0     ---     ---   

      C0715EH     BLOCK     LVL=0     0004H   ---   trans_actuator_num
      000048H     SYMBOL    REG       ---     ---   act_num
      000049H     SYMBOL    REG       ---     ---   act_on_off
      C0715EH     LINE      ---       ---     ---   #77
      C0715EH     LINE      ---       ---     ---   #82
      C07160H     LINE      ---       ---     ---   #83
      ---         BLOCKEND  LVL=0     ---     ---   

      C07162H     BLOCK     LVL=0     0002H   ---   update_comp_monitor
      000008H     SYMBOL    REG       ---     ---   comp_cmd
      C07162H     LINE      ---       ---     ---   #87
      C07162H     LINE      ---       ---     ---   #90
      ---         BLOCKEND  LVL=0     ---     ---   

      C07164H     BLOCK     LVL=0     0002H   ---   do_mcu2_taskx_init
      C07164H     LINE      ---       ---     ---   #95
      C07164H     LINE      ---       ---     ---   #97
      ---         BLOCKEND  LVL=0     ---     ---   

      C07166H     BLOCK     LVL=0     0004H   ---   do_mcu2_taskx
      C07166H     LINE      ---       ---     ---   #102
      C07166H     LINE      ---       ---     ---   #105
      C07168H     LINE      ---       ---     ---   #106
      ---         BLOCKEND  LVL=0     ---     ---   

      C0716AH     BLOCK     LVL=0     0002H   ---   do_mcu2_taskx_10ms_hook
      C0716AH     LINE      ---       ---     ---   #111
      C0716AH     LINE      ---       ---     ---   #114
      ---         BLOCKEND  LVL=0     ---     ---   
      C052D0H     PUBLIC    LABEL     ---     ---   cmd_wrsr
      C05302H     PUBLIC    LABEL     ---     ---   eeprom_wr
      C0525AH     PUBLIC    LABEL     ---     ---   cmd_wren
      C0529EH     PUBLIC    LABEL     ---     ---   cmd_rdsr
      C0527CH     PUBLIC    LABEL     ---     ---   cmd_wrdi
      C053D0H     PUBLIC    LABEL     ---     ---   eeprom_rd
      C051E6H     PUBLIC    LABEL     ---     ---   byte_shift
      C0512AH     PUBLIC    LABEL     ---     ---   eeprom_init

      C0512AH     BLOCK     LVL=0     00BCH   ---   eeprom_init
      C0512CH     BLOCK     LVL=1     00B6H   ---   
      000000H     SYMBOL    AUTO      ---     ---   buf
      ---         BLOCKEND  LVL=1     ---     ---   
      C0512AH     LINE      ---       ---     ---   #44
      C0512CH     LINE      ---       ---     ---   #45
L166 LINKER/LOCATER V5.29.2.0                                                         12/14/2020  10:56:44  PAGE 52


      C0512CH     LINE      ---       ---     ---   #50
      C05134H     LINE      ---       ---     ---   #51
      C0513CH     LINE      ---       ---     ---   #52
      C05142H     LINE      ---       ---     ---   #53
      C0514AH     LINE      ---       ---     ---   #56
      C0514EH     LINE      ---       ---     ---   #57
      C05158H     LINE      ---       ---     ---   #60
      C0515CH     LINE      ---       ---     ---   #61
      C0515CH     LINE      ---       ---     ---   #62
      C05160H     LINE      ---       ---     ---   #63
      C05168H     LINE      ---       ---     ---   #66
      C0516CH     LINE      ---       ---     ---   #67
      C0516CH     LINE      ---       ---     ---   #68
      C0517EH     LINE      ---       ---     ---   #69
      C05190H     LINE      ---       ---     ---   #71
      C0519EH     LINE      ---       ---     ---   #72
      C051B4H     LINE      ---       ---     ---   #73
      C051B8H     LINE      ---       ---     ---   #74
      C051CAH     LINE      ---       ---     ---   #75
      C051DCH     LINE      ---       ---     ---   #77
      C051E0H     LINE      ---       ---     ---   #78
      C051E0H     LINE      ---       ---     ---   #81
      C051E2H     LINE      ---       ---     ---   #82
      ---         BLOCKEND  LVL=0     ---     ---   

      C051E6H     BLOCK     LVL=0     0074H   ---   byte_shift
      000008H     SYMBOL    REG       ---     ---   dat
      00004DH     SYMBOL    REG       ---     ---   bit_num
      C051F0H     BLOCK     LVL=1     0060H   ---   
      000000H     SYMBOL    AUTO      ---     ---   idx
      00000FH     SYMBOL    REG       ---     ---   tmp
      00000EH     SYMBOL    REG       ---     ---   tmp1
      ---         BLOCKEND  LVL=1     ---     ---   
      C051E6H     LINE      ---       ---     ---   #87
      C051F0H     LINE      ---       ---     ---   #88
      C051F0H     LINE      ---       ---     ---   #94
      C051FEH     LINE      ---       ---     ---   #95
      C05202H     LINE      ---       ---     ---   #97
      C05204H     LINE      ---       ---     ---   #98
      C05206H     LINE      ---       ---     ---   #99
      C0520EH     LINE      ---       ---     ---   #100
      C05210H     LINE      ---       ---     ---   #103
      C05216H     LINE      ---       ---     ---   #105
      C05218H     LINE      ---       ---     ---   #106
      C05226H     LINE      ---       ---     ---   #107
      C05228H     LINE      ---       ---     ---   #108
      C0522EH     LINE      ---       ---     ---   #109
      C05230H     LINE      ---       ---     ---   #110
      C05232H     LINE      ---       ---     ---   #111
      C0523AH     LINE      ---       ---     ---   #112
      C05240H     LINE      ---       ---     ---   #113
      C0524EH     LINE      ---       ---     ---   #115
      C05250H     LINE      ---       ---     ---   #122
      ---         BLOCKEND  LVL=0     ---     ---   

      C0525AH     BLOCK     LVL=0     0022H   ---   cmd_wren
      C0525AH     LINE      ---       ---     ---   #127
L166 LINKER/LOCATER V5.29.2.0                                                         12/14/2020  10:56:44  PAGE 53


      C0525AH     LINE      ---       ---     ---   #129
      C05262H     LINE      ---       ---     ---   #130
      C0526AH     LINE      ---       ---     ---   #131
      C05272H     LINE      ---       ---     ---   #132
      C0527AH     LINE      ---       ---     ---   #133
      ---         BLOCKEND  LVL=0     ---     ---   

      C0527CH     BLOCK     LVL=0     0022H   ---   cmd_wrdi
      C0527CH     LINE      ---       ---     ---   #138
      C0527CH     LINE      ---       ---     ---   #140
      C05284H     LINE      ---       ---     ---   #141
      C0528CH     LINE      ---       ---     ---   #142
      C05294H     LINE      ---       ---     ---   #143
      C0529CH     LINE      ---       ---     ---   #144
      ---         BLOCKEND  LVL=0     ---     ---   

      C0529EH     BLOCK     LVL=0     0032H   ---   cmd_rdsr
      C052A0H     BLOCK     LVL=1     002CH   ---   
      00004DH     SYMBOL    REG       ---     ---   tmp
      ---         BLOCKEND  LVL=1     ---     ---   
      C0529EH     LINE      ---       ---     ---   #149
      C052A0H     LINE      ---       ---     ---   #150
      C052A0H     LINE      ---       ---     ---   #152
      C052A8H     LINE      ---       ---     ---   #153
      C052B0H     LINE      ---       ---     ---   #154
      C052BAH     LINE      ---       ---     ---   #155
      C052C2H     LINE      ---       ---     ---   #156
      C052CAH     LINE      ---       ---     ---   #158
      C052CCH     LINE      ---       ---     ---   #159
      ---         BLOCKEND  LVL=0     ---     ---   

      C052D0H     BLOCK     LVL=0     0032H   ---   cmd_wrsr
      00004DH     SYMBOL    REG       ---     ---   ch
      C052D0H     LINE      ---       ---     ---   #164
      C052D4H     LINE      ---       ---     ---   #166
      C052DCH     LINE      ---       ---     ---   #167
      C052E4H     LINE      ---       ---     ---   #168
      C052EEH     LINE      ---       ---     ---   #169
      C052F6H     LINE      ---       ---     ---   #170
      C052FEH     LINE      ---       ---     ---   #171
      ---         BLOCKEND  LVL=0     ---     ---   

      C05302H     BLOCK     LVL=0     00CEH   ---   eeprom_wr
      000002H     SYMBOL    AUTO      ---     ---   addr
      00004DH     SYMBOL    REG       ---     ---   len
      00000EH     SYMBOL    REG       ---     ---   buf
      C05312H     BLOCK     LVL=1     00B4H   ---   
      000000H     SYMBOL    AUTO      ---     ---   idx
      ---         BLOCKEND  LVL=1     ---     ---   
      C05302H     LINE      ---       ---     ---   #176
      C05312H     LINE      ---       ---     ---   #177
      C05312H     LINE      ---       ---     ---   #180
      C0531AH     LINE      ---       ---     ---   #181
      C0531EH     LINE      ---       ---     ---   #183
      C05324H     LINE      ---       ---     ---   #184
      C05328H     LINE      ---       ---     ---   #186
      C05330H     LINE      ---       ---     ---   #187
L166 LINKER/LOCATER V5.29.2.0                                                         12/14/2020  10:56:44  PAGE 54


      C05338H     LINE      ---       ---     ---   #188
      C05344H     LINE      ---       ---     ---   #189
      C0534AH     LINE      ---       ---     ---   #190
      C0536CH     LINE      ---       ---     ---   #191
      C05374H     LINE      ---       ---     ---   #192
      C0537CH     LINE      ---       ---     ---   #194
      C05380H     LINE      ---       ---     ---   #195
      C05382H     LINE      ---       ---     ---   #197
      C05388H     LINE      ---       ---     ---   #198
      C0538EH     LINE      ---       ---     ---   #199
      C05396H     LINE      ---       ---     ---   #200
      C05396H     LINE      ---       ---     ---   #201
      C0539EH     LINE      ---       ---     ---   #203
      C053A2H     LINE      ---       ---     ---   #204
      C053A8H     LINE      ---       ---     ---   #206
      C053B8H     LINE      ---       ---     ---   #208
      C053C6H     LINE      ---       ---     ---   #209
      ---         BLOCKEND  LVL=0     ---     ---   

      C053D0H     BLOCK     LVL=0     007EH   ---   eeprom_rd
      000002H     SYMBOL    AUTO      ---     ---   addr
      00004DH     SYMBOL    REG       ---     ---   len
      00000EH     SYMBOL    REG       ---     ---   buf
      C053E0H     BLOCK     LVL=1     0064H   ---   
      000000H     SYMBOL    AUTO      ---     ---   idx
      ---         BLOCKEND  LVL=1     ---     ---   
      C053D0H     LINE      ---       ---     ---   #214
      C053E0H     LINE      ---       ---     ---   #215
      C053E0H     LINE      ---       ---     ---   #217
      C053E6H     LINE      ---       ---     ---   #218
      C053EEH     LINE      ---       ---     ---   #219
      C053F6H     LINE      ---       ---     ---   #220
      C05402H     LINE      ---       ---     ---   #221
      C05408H     LINE      ---       ---     ---   #222
      C0542CH     LINE      ---       ---     ---   #223
      C05434H     LINE      ---       ---     ---   #224
      C0543CH     LINE      ---       ---     ---   #225
      C05442H     LINE      ---       ---     ---   #227
      C05444H     LINE      ---       ---     ---   #228
      ---         BLOCKEND  LVL=0     ---     ---   
      C000CEH     PUBLIC    VAR       ---     ---   lib_dtc_diag_version
      C00004H     PUBLIC    LABEL     ---     ---   dtc_infox

      C00004H     BLOCK     LVL=0     0004H   ---   dtc_infox
      000048H     SYMBOL    REG       ---     ---   idh
      000049H     SYMBOL    REG       ---     ---   idl
      00000AH     SYMBOL    REG       ---     ---   buf
      C00004H     LINE      ---       ---     ---   #15
      C00004H     LINE      ---       ---     ---   #21
      C00006H     LINE      ---       ---     ---   #22
      ---         BLOCKEND  LVL=0     ---     ---   
      C00088H     PUBLIC    VAR       ---     ---   xdtc
      C07154H     PUBLIC    LABEL     ---     ---   do_mcu1_msg
      C0713CH     PUBLIC    LABEL     ---     ---   mcu2_imp_init
      C07156H     PUBLIC    LABEL     ---     ---   submit_task
      C07152H     PUBLIC    LABEL     ---     ---   do_mcu2
      E0035DH     PUBLIC    VAR       ---     ---   diag_on_bak
L166 LINKER/LOCATER V5.29.2.0                                                         12/14/2020  10:56:44  PAGE 55



      C0713CH     BLOCK     LVL=0     0016H   ---   mcu2_imp_init
      C0713CH     LINE      ---       ---     ---   #34
      C0713CH     LINE      ---       ---     ---   #36
      C07150H     LINE      ---       ---     ---   #37
      ---         BLOCKEND  LVL=0     ---     ---   

      C07152H     BLOCK     LVL=0     0002H   ---   do_mcu2
      C07152H     LINE      ---       ---     ---   #41
      C07152H     LINE      ---       ---     ---   #44
      ---         BLOCKEND  LVL=0     ---     ---   

      C07154H     BLOCK     LVL=0     0002H   ---   do_mcu1_msg
      C07154H     LINE      ---       ---     ---   #48
      C07154H     LINE      ---       ---     ---   #50
      ---         BLOCKEND  LVL=0     ---     ---   

      C07156H     BLOCK     LVL=0     0002H   ---   submit_task
      000048H     SYMBOL    REG       ---     ---   task_id
      000009H     SYMBOL    REG       ---     ---   para
      00004BH     SYMBOL    REG       ---     ---   len
      C07156H     LINE      ---       ---     ---   #53
      C07156H     LINE      ---       ---     ---   #58
      ---         BLOCKEND  LVL=0     ---     ---   
      C070ECH     PUBLIC    LABEL     ---     ---   do_tester_msg
      C07116H     PUBLIC    LABEL     ---     ---   timer_hook_50ms
      C070F4H     PUBLIC    LABEL     ---     ---   get_sid_offset
      C07118H     PUBLIC    LABEL     ---     ---   do_component_test
      C070F0H     PUBLIC    LABEL     ---     ---   get_msg_len
      C070F8H     PUBLIC    LABEL     ---     ---   calc_chksum
      E0034AH     PUBLIC    VAR       ---     ---   g_seed
      E0034EH     PUBLIC    VAR       ---     ---   gact_task_tout
      E00350H     PUBLIC    VAR       ---     ---   g_msg_offset
      E00351H     PUBLIC    VAR       ---     ---   gact_task_stat
      E00352H     PUBLIC    VAR       ---     ---   g_tmp0
      E00353H     PUBLIC    VAR       ---     ---   prod_mode
      E00354H     PUBLIC    VAR       ---     ---   routine_id
      E00355H     PUBLIC    VAR       ---     ---   gact_task
      E00356H     PUBLIC    VAR       ---     ---   g_msg_len
      E00357H     PUBLIC    VAR       ---     ---   g_msg_data_len
      E00358H     PUBLIC    VAR       ---     ---   g_wheelspeed_test_status
      E00359H     PUBLIC    VAR       ---     ---   diag_mode
      E0035AH     PUBLIC    VAR       ---     ---   g_msg_error
      E0035BH     PUBLIC    VAR       ---     ---   g_tmp
      E0035CH     PUBLIC    VAR       ---     ---   security_mode
      00AA96H     PUBLIC    VAR       ---     ---   g_tmpbuf
      00AA9EH     PUBLIC    VAR       ---     ---   comp_on_tout

      C070ECH     BLOCK     LVL=0     0004H   ---   do_tester_msg
      000008H     SYMBOL    REG       ---     ---   inbuf
      00000AH     SYMBOL    REG       ---     ---   outbuf
      00004CH     SYMBOL    REG       ---     ---   msglen
      000000H     SYMBOL    AUTO      ---     ---   option
      C070ECH     LINE      ---       ---     ---   #77
      C070ECH     LINE      ---       ---     ---   #84
      C070EEH     LINE      ---       ---     ---   #85
      ---         BLOCKEND  LVL=0     ---     ---   
L166 LINKER/LOCATER V5.29.2.0                                                         12/14/2020  10:56:44  PAGE 56



      C070F0H     BLOCK     LVL=0     0004H   ---   get_msg_len
      000008H     SYMBOL    REG       ---     ---   buf
      00004AH     SYMBOL    REG       ---     ---   len
      C070F0H     LINE      ---       ---     ---   #89
      C070F0H     LINE      ---       ---     ---   #94
      C070F2H     LINE      ---       ---     ---   #95
      ---         BLOCKEND  LVL=0     ---     ---   

      C070F4H     BLOCK     LVL=0     0004H   ---   get_sid_offset
      000008H     SYMBOL    REG       ---     ---   buf
      00004AH     SYMBOL    REG       ---     ---   len
      C070F4H     LINE      ---       ---     ---   #100
      C070F4H     LINE      ---       ---     ---   #105
      C070F6H     LINE      ---       ---     ---   #106
      ---         BLOCKEND  LVL=0     ---     ---   

      C070F8H     BLOCK     LVL=0     001EH   ---   calc_chksum
      000008H     SYMBOL    REG       ---     ---   buf
      00004AH     SYMBOL    REG       ---     ---   buflen
      C070F8H     BLOCK     LVL=1     001CH   ---   
      00008EH     SYMBOL    REG       ---     ---   idx
      000082H     SYMBOL    REG       ---     ---   sum
      ---         BLOCKEND  LVL=1     ---     ---   
      C070F8H     LINE      ---       ---     ---   #110
      C070F8H     LINE      ---       ---     ---   #111
      C070F8H     LINE      ---       ---     ---   #113
      C070FAH     LINE      ---       ---     ---   #114
      C070FEH     LINE      ---       ---     ---   #116
      C0710AH     LINE      ---       ---     ---   #117
      C07112H     LINE      ---       ---     ---   #119
      C07114H     LINE      ---       ---     ---   #120
      ---         BLOCKEND  LVL=0     ---     ---   

      C07116H     BLOCK     LVL=0     0002H   ---   timer_hook_50ms
      C07116H     LINE      ---       ---     ---   #124
      C07116H     LINE      ---       ---     ---   #127
      ---         BLOCKEND  LVL=0     ---     ---   

      C07118H     BLOCK     LVL=0     0002H   ---   do_component_test
      000048H     SYMBOL    REG       ---     ---   sid
      000049H     SYMBOL    REG       ---     ---   para0
      00004AH     SYMBOL    REG       ---     ---   para1
      00004BH     SYMBOL    REG       ---     ---   option
      C07118H     LINE      ---       ---     ---   #132
      C07118H     LINE      ---       ---     ---   #138
      ---         BLOCKEND  LVL=0     ---     ---   
      C0010CH     PUBLIC    VAR       ---     ---   g_ypara
      C0566EH     PUBLIC    LABEL     ---     ---   can_do_objx_hook_hican
      C05642H     PUBLIC    LABEL     ---     ---   hican_10ms_hook
      C05646H     PUBLIC    LABEL     ---     ---   do_boff_recovery
      C0544EH     PUBLIC    LABEL     ---     ---   hican_init
      C05644H     PUBLIC    LABEL     ---     ---   hican_1ms_hook
      E0039EH     PUBLIC    VAR       ---     ---   wgy
      E003A0H     PUBLIC    VAR       ---     ---   g_dto_id
      E003A2H     PUBLIC    VAR       ---     ---   g_cto_id
      E003A4H     PUBLIC    VAR       ---     ---   g_diag_resp_id
L166 LINKER/LOCATER V5.29.2.0                                                         12/14/2020  10:56:44  PAGE 57


      E003A6H     PUBLIC    VAR       ---     ---   g_diag_tester_id

      C0544EH     BLOCK     LVL=0     01F4H   ---   hican_init
      C0544EH     LINE      ---       ---     ---   #36
      C0544EH     LINE      ---       ---     ---   #43
      C0546CH     LINE      ---       ---     ---   #44
      C0548AH     LINE      ---       ---     ---   #45
      C054A8H     LINE      ---       ---     ---   #46
      C054C6H     LINE      ---       ---     ---   #47
      C054E4H     LINE      ---       ---     ---   #48
      C05502H     LINE      ---       ---     ---   #54
      C0551CH     LINE      ---       ---     ---   #55
      C05536H     LINE      ---       ---     ---   #63
      C05558H     LINE      ---       ---     ---   #64
      C0557AH     LINE      ---       ---     ---   #65
      C0559CH     LINE      ---       ---     ---   #66
      C055BEH     LINE      ---       ---     ---   #69
      C055DEH     LINE      ---       ---     ---   #70
      C055FEH     LINE      ---       ---     ---   #71
      C0561EH     LINE      ---       ---     ---   #72
      C0563EH     LINE      ---       ---     ---   #87
      C05640H     LINE      ---       ---     ---   #88
      ---         BLOCKEND  LVL=0     ---     ---   

      C05642H     BLOCK     LVL=0     0002H   ---   hican_10ms_hook
      C05642H     LINE      ---       ---     ---   #93
      C05642H     LINE      ---       ---     ---   #95
      ---         BLOCKEND  LVL=0     ---     ---   

      C05644H     BLOCK     LVL=0     0002H   ---   hican_1ms_hook
      C05644H     LINE      ---       ---     ---   #100
      C05644H     LINE      ---       ---     ---   #102
      ---         BLOCKEND  LVL=0     ---     ---   

      C05646H     BLOCK     LVL=0     0028H   ---   do_boff_recovery
      C05646H     BLOCK     LVL=1     0026H   ---   
      E003A8H     SYMBOL    VAR       ---     ---   l_timer_boff
      ---         BLOCKEND  LVL=1     ---     ---   
      C05646H     LINE      ---       ---     ---   #108
      C05646H     LINE      ---       ---     ---   #109
      C05646H     LINE      ---       ---     ---   #112
      C0564EH     LINE      ---       ---     ---   #114
      C05652H     LINE      ---       ---     ---   #116
      C0565CH     LINE      ---       ---     ---   #118
      C05660H     LINE      ---       ---     ---   #119
      C05664H     LINE      ---       ---     ---   #120
      C05666H     LINE      ---       ---     ---   #123
      C0566AH     LINE      ---       ---     ---   #125
      C0566CH     LINE      ---       ---     ---   #126
      ---         BLOCKEND  LVL=0     ---     ---   

      C0566EH     BLOCK     LVL=0     00F2H   ---   can_do_objx_hook_hican
      000048H     SYMBOL    REG       ---     ---   no
      00000EH     SYMBOL    REG       ---     ---   id
      000020H     SYMBOL    AUTO      ---     ---   buf
      000024H     SYMBOL    AUTO      ---     ---   len
      C0567EH     BLOCK     LVL=1     00D8H   ---   
L166 LINKER/LOCATER V5.29.2.0                                                         12/14/2020  10:56:44  PAGE 58


      000000H     SYMBOL    AUTO      ---     ---   bufx
      00008EH     SYMBOL    REG       ---     ---   idx
      ---         BLOCKEND  LVL=1     ---     ---   
      C0566EH     LINE      ---       ---     ---   #131
      C0567EH     LINE      ---       ---     ---   #132
      C0567EH     LINE      ---       ---     ---   #140
      C05682H     LINE      ---       ---     ---   #142
      C05698H     LINE      ---       ---     ---   #143
      C056A2H     LINE      ---       ---     ---   #145
      C056B2H     LINE      ---       ---     ---   #149
      C056B2H     LINE      ---       ---     ---   #150
      C056B2H     LINE      ---       ---     ---   #151
      C056C2H     LINE      ---       ---     ---   #154
      C056D0H     LINE      ---       ---     ---   #162
      C056D2H     LINE      ---       ---     ---   #163
      C056D2H     LINE      ---       ---     ---   #165
      C056E0H     LINE      ---       ---     ---   #167
      C056ECH     LINE      ---       ---     ---   #168
      C056ECH     LINE      ---       ---     ---   #169
      C056FAH     LINE      ---       ---     ---   #171
      C05700H     LINE      ---       ---     ---   #172
      C05700H     LINE      ---       ---     ---   #173
      C0570EH     LINE      ---       ---     ---   #175
      C05714H     LINE      ---       ---     ---   #176
      C05714H     LINE      ---       ---     ---   #177
      C05722H     LINE      ---       ---     ---   #179
      C05728H     LINE      ---       ---     ---   #180
      C05728H     LINE      ---       ---     ---   #181
      C05734H     LINE      ---       ---     ---   #183
      C05740H     LINE      ---       ---     ---   #184
      C05740H     LINE      ---       ---     ---   #186
      C05756H     LINE      ---       ---     ---   #187
      ---         BLOCKEND  LVL=0     ---     ---   
      C06D46H     PUBLIC    LABEL     ---     ---   ApplXcpSetCalPage
      C06D40H     PUBLIC    LABEL     ---     ---   ApplXcpGetCalPage
      C06D86H     PUBLIC    LABEL     ---     ---   ApplXcpGetSeed
      C06DFCH     PUBLIC    LABEL     ---     ---   ApplXcpSendStall
      C06D76H     PUBLIC    LABEL     ---     ---   ApplXcpGetPointer
      C06DBEH     PUBLIC    LABEL     ---     ---   ApplXcpUnlock
      C06D3CH     PUBLIC    LABEL     ---     ---   ApplXcpGetTimestamp
      C06D32H     PUBLIC    LABEL     ---     ---   ApplXcpInitTemplate
      E00402H     PUBLIC    VAR       ---     ---   xcpResource
      E00401H     SYMBOL    VAR       ---     ---   xcpCalPage
      00AAB0H     PUBLIC    VAR       ---     ---   kXcpStationId

      C06D32H     BLOCK     LVL=0     000AH   ---   ApplXcpInitTemplate
      C06D32H     LINE      ---       ---     ---   #135
      C06D32H     LINE      ---       ---     ---   #139
      C06D36H     LINE      ---       ---     ---   #145
      C06D3AH     LINE      ---       ---     ---   #147
      ---         BLOCKEND  LVL=0     ---     ---   

      C06D3CH     BLOCK     LVL=0     0004H   ---   ApplXcpGetTimestamp
      C06D3CH     LINE      ---       ---     ---   #162
      C06D3CH     LINE      ---       ---     ---   #164
      C06D3EH     LINE      ---       ---     ---   #165
      ---         BLOCKEND  LVL=0     ---     ---   
L166 LINKER/LOCATER V5.29.2.0                                                         12/14/2020  10:56:44  PAGE 59



      C06D40H     BLOCK     LVL=0     0006H   ---   ApplXcpGetCalPage
      000048H     SYMBOL    REG       ---     ---   segment
      000049H     SYMBOL    REG       ---     ---   mode
      C06D40H     LINE      ---       ---     ---   #188
      C06D40H     LINE      ---       ---     ---   #193
      C06D44H     LINE      ---       ---     ---   #194
      ---         BLOCKEND  LVL=0     ---     ---   

      C06D46H     BLOCK     LVL=0     0030H   ---   ApplXcpSetCalPage
      000048H     SYMBOL    REG       ---     ---   segment
      000049H     SYMBOL    REG       ---     ---   page
      00004AH     SYMBOL    REG       ---     ---   mode
      C06D46H     LINE      ---       ---     ---   #206
      C06D46H     LINE      ---       ---     ---   #208
      C06D4CH     LINE      ---       ---     ---   #210
      C06D52H     LINE      ---       ---     ---   #211
      C06D52H     LINE      ---       ---     ---   #212
      C06D58H     LINE      ---       ---     ---   #214
      C06D5EH     LINE      ---       ---     ---   #215
      C06D5EH     LINE      ---       ---     ---   #216
      C06D66H     LINE      ---       ---     ---   #218
      C06D6CH     LINE      ---       ---     ---   #219
      C06D6CH     LINE      ---       ---     ---   #220
      C06D72H     LINE      ---       ---     ---   #222
      C06D74H     LINE      ---       ---     ---   #223
      ---         BLOCKEND  LVL=0     ---     ---   

      C06D76H     BLOCK     LVL=0     0010H   ---   ApplXcpGetPointer
      000048H     SYMBOL    REG       ---     ---   addr_ext
      000009H     SYMBOL    REG       ---     ---   addr
      C06D76H     LINE      ---       ---     ---   #303
      C06D76H     LINE      ---       ---     ---   #308
      C06D84H     LINE      ---       ---     ---   #309
      ---         BLOCKEND  LVL=0     ---     ---   

      C06D86H     BLOCK     LVL=0     0038H   ---   ApplXcpGetSeed
      000048H     SYMBOL    REG       ---     ---   resource
      000009H     SYMBOL    REG       ---     ---   seed
      C06D86H     LINE      ---       ---     ---   #469
      C06D86H     LINE      ---       ---     ---   #472
      C06D8CH     LINE      ---       ---     ---   #475
      C06D92H     LINE      ---       ---     ---   #476
      C06D9AH     LINE      ---       ---     ---   #477
      C06DA2H     LINE      ---       ---     ---   #478
      C06DAAH     LINE      ---       ---     ---   #479
      C06DB2H     LINE      ---       ---     ---   #480
      C06DBAH     LINE      ---       ---     ---   #482
      C06DBCH     LINE      ---       ---     ---   #483
      ---         BLOCKEND  LVL=0     ---     ---   

      C06DBEH     BLOCK     LVL=0     003EH   ---   ApplXcpUnlock
      000008H     SYMBOL    REG       ---     ---   key
      00004AH     SYMBOL    REG       ---     ---   length
      C06DBEH     LINE      ---       ---     ---   #495
      C06DBEH     LINE      ---       ---     ---   #501
      C06DC8H     LINE      ---       ---     ---   #502
L166 LINKER/LOCATER V5.29.2.0                                                         12/14/2020  10:56:44  PAGE 60


      C06DCCH     LINE      ---       ---     ---   #504
      C06DF2H     LINE      ---       ---     ---   #505
      C06DF6H     LINE      ---       ---     ---   #507
      C06DFAH     LINE      ---       ---     ---   #508
      ---         BLOCKEND  LVL=0     ---     ---   

      C06DFCH     BLOCK     LVL=0     0004H   ---   ApplXcpSendStall
      C06DFCH     LINE      ---       ---     ---   #607
      C06DFCH     LINE      ---       ---     ---   #611
      C06DFEH     LINE      ---       ---     ---   #612
      ---         BLOCKEND  LVL=0     ---     ---   
      C0118CH     PUBLIC    LABEL     ---     ---   XcpSetActiveTl
      C01174H     PUBLIC    LABEL     ---     ---   XcpMemCpy
      C01154H     PUBLIC    LABEL     ---     ---   XcpMemSet
      C01C30H     PUBLIC    LABEL     ---     ---   XcpCommand
      C01198H     PUBLIC    LABEL     ---     ---   XcpGetActiveTl
      C0128EH     PUBLIC    LABEL     ---     ---   XcpSendDto
      C011A2H     PUBLIC    LABEL     ---     ---   XcpSendCrm
      C025CAH     PUBLIC    LABEL     ---     ---   XcpExit
      C0259EH     PUBLIC    LABEL     ---     ---   XcpInit
      C025CCH     PUBLIC    LABEL     ---     ---   XcpSendEvent
      C01C0AH     PUBLIC    LABEL     ---     ---   XcpDisconnect
      C01B54H     PUBLIC    LABEL     ---     ---   XcpBackground
      C0178CH     PUBLIC    LABEL     ---     ---   XcpEvent
      C02522H     PUBLIC    LABEL     ---     ---   XcpSendCallBack
      C01214H     SYMBOL    LABEL     ---     ---   XcpSendEv
      C01166H     SYMBOL    LABEL     ---     ---   XcpMemClr
      C01692H     SYMBOL    LABEL     ---     ---   XcpStopDaq
      C01340H     SYMBOL    LABEL     ---     ---   XcpWriteMta
      C01580H     SYMBOL    LABEL     ---     ---   XcpAllocOdtEntry
      C0160AH     SYMBOL    LABEL     ---     ---   XcpStartDaq
      C0136EH     SYMBOL    LABEL     ---     ---   XcpReadMta
      C01332H     SYMBOL    LABEL     ---     ---   XcpQueueInit
      C013A4H     SYMBOL    LABEL     ---     ---   XcpFreeDaq
      C01526H     SYMBOL    LABEL     ---     ---   XcpAllocOdt
      C016F4H     SYMBOL    LABEL     ---     ---   XcpStopAllSelectedDaq
      C01516H     SYMBOL    LABEL     ---     ---   XcpAllocDaq
      C01644H     SYMBOL    LABEL     ---     ---   XcpStartAllSelectedDaq
      C013FCH     SYMBOL    LABEL     ---     ---   XcpAllocMemory
      C01742H     SYMBOL    LABEL     ---     ---   XcpStopAllDaq
      C012A2H     SYMBOL    LABEL     ---     ---   XcpSendDtoFromQueue
      C04011H     PUBLIC    VAR       ---     ---   kXcpReleaseVersion
      C04012H     PUBLIC    VAR       ---     ---   kXcpSubVersion
      C04013H     PUBLIC    VAR       ---     ---   kXcpMainVersion
      00A000H     PUBLIC    VAR       ---     ---   xcp

      C01154H     BLOCK     LVL=0     0012H   ---   XcpMemSet
      000008H     SYMBOL    REG       ---     ---   p
      00000AH     SYMBOL    REG       ---     ---   n
      00004BH     SYMBOL    REG       ---     ---   b
      C01154H     LINE      ---       ---     ---   #493
      C01154H     LINE      ---       ---     ---   #495
      C01156H     LINE      ---       ---     ---   #497
      C0115CH     LINE      ---       ---     ---   #498
      C0115EH     LINE      ---       ---     ---   #499
      C01164H     LINE      ---       ---     ---   #500
      ---         BLOCKEND  LVL=0     ---     ---   
L166 LINKER/LOCATER V5.29.2.0                                                         12/14/2020  10:56:44  PAGE 61



      C01166H     BLOCK     LVL=0     000EH   ---   XcpMemClr
      000006H     SYMBOL    REG       ---     ---   p
      000004H     SYMBOL    REG       ---     ---   n
      C01166H     LINE      ---       ---     ---   #517
      C0116CH     LINE      ---       ---     ---   #519
      C01172H     LINE      ---       ---     ---   #520
      ---         BLOCKEND  LVL=0     ---     ---   

      C01174H     BLOCK     LVL=0     0018H   ---   XcpMemCpy
      000008H     SYMBOL    REG       ---     ---   dest
      00000AH     SYMBOL    REG       ---     ---   src
      00004CH     SYMBOL    REG       ---     ---   n
      C01174H     LINE      ---       ---     ---   #542
      C01174H     LINE      ---       ---     ---   #544
      C01176H     LINE      ---       ---     ---   #547
      C0117EH     LINE      ---       ---     ---   #548
      C01180H     LINE      ---       ---     ---   #549
      C01182H     LINE      ---       ---     ---   #550
      C0118AH     LINE      ---       ---     ---   #551
      ---         BLOCKEND  LVL=0     ---     ---   

      C0118CH     BLOCK     LVL=0     000CH   ---   XcpSetActiveTl
      000048H     SYMBOL    REG       ---     ---   MaxCto
      000049H     SYMBOL    REG       ---     ---   MaxDto
      00004AH     SYMBOL    REG       ---     ---   ActiveTl
      C0118CH     LINE      ---       ---     ---   #564
      C0118CH     LINE      ---       ---     ---   #569
      C01196H     LINE      ---       ---     ---   #570
      ---         BLOCKEND  LVL=0     ---     ---   

      C01198H     BLOCK     LVL=0     000AH   ---   XcpGetActiveTl
      C01198H     LINE      ---       ---     ---   #580
      C01198H     LINE      ---       ---     ---   #582
      C011A0H     LINE      ---       ---     ---   #583
      ---         BLOCKEND  LVL=0     ---     ---   

      C011A2H     BLOCK     LVL=0     0072H   ---   XcpSendCrm
      C011A2H     LINE      ---       ---     ---   #602
      C011A2H     LINE      ---       ---     ---   #609
      C011A6H     LINE      ---       ---     ---   #611
      C011B4H     LINE      ---       ---     ---   #613
      C011C0H     LINE      ---       ---     ---   #616
      C011D2H     LINE      ---       ---     ---   #617
      C011D2H     LINE      ---       ---     ---   #618
      C011E4H     LINE      ---       ---     ---   #619
      C011E6H     LINE      ---       ---     ---   #622
      C011FAH     LINE      ---       ---     ---   #623
      C0120EH     LINE      ---       ---     ---   #624
      C0120EH     LINE      ---       ---     ---   #626
      C01212H     LINE      ---       ---     ---   #636
      ---         BLOCKEND  LVL=0     ---     ---   

      C01214H     BLOCK     LVL=0     007AH   ---   XcpSendEv
      C01214H     LINE      ---       ---     ---   #647
      C01214H     LINE      ---       ---     ---   #651
      C01218H     LINE      ---       ---     ---   #653
L166 LINKER/LOCATER V5.29.2.0                                                         12/14/2020  10:56:44  PAGE 62


      C01226H     LINE      ---       ---     ---   #655
      C01232H     LINE      ---       ---     ---   #658
      C01244H     LINE      ---       ---     ---   #659
      C01244H     LINE      ---       ---     ---   #660
      C01256H     LINE      ---       ---     ---   #661
      C01258H     LINE      ---       ---     ---   #664
      C0126CH     LINE      ---       ---     ---   #665
      C01280H     LINE      ---       ---     ---   #666
      C01288H     LINE      ---       ---     ---   #667
      C01288H     LINE      ---       ---     ---   #669
      C0128CH     LINE      ---       ---     ---   #680
      ---         BLOCKEND  LVL=0     ---     ---   

      C0128EH     BLOCK     LVL=0     0014H   ---   XcpSendDto
      000006H     SYMBOL    REG       ---     ---   dto
      C0128EH     LINE      ---       ---     ---   #696
      C01290H     LINE      ---       ---     ---   #698
      C012A0H     LINE      ---       ---     ---   #699
      ---         BLOCKEND  LVL=0     ---     ---   

      C012A2H     BLOCK     LVL=0     0090H   ---   XcpSendDtoFromQueue
      C012A2H     LINE      ---       ---     ---   #714
      C012A2H     LINE      ---       ---     ---   #716
      C012A6H     LINE      ---       ---     ---   #717
      C012BEH     LINE      ---       ---     ---   #719
      C012D2H     LINE      ---       ---     ---   #720
      C012EEH     LINE      ---       ---     ---   #721
      C01300H     LINE      ---       ---     ---   #722
      C01308H     LINE      ---       ---     ---   #724
      C01310H     LINE      ---       ---     ---   #725
      C01310H     LINE      ---       ---     ---   #726
      C01322H     LINE      ---       ---     ---   #727
      C01326H     LINE      ---       ---     ---   #728
      C0132AH     LINE      ---       ---     ---   #729
      C0132AH     LINE      ---       ---     ---   #730
      C0132EH     LINE      ---       ---     ---   #731
      C01330H     LINE      ---       ---     ---   #733
      ---         BLOCKEND  LVL=0     ---     ---   

      C01332H     BLOCK     LVL=0     000EH   ---   XcpQueueInit
      C01332H     LINE      ---       ---     ---   #751
      C01332H     LINE      ---       ---     ---   #753
      C0133AH     LINE      ---       ---     ---   #754
      C0133EH     LINE      ---       ---     ---   #755
      ---         BLOCKEND  LVL=0     ---     ---   

      C01340H     BLOCK     LVL=0     002EH   ---   XcpWriteMta
      000048H     SYMBOL    REG       ---     ---   size
      000009H     SYMBOL    REG       ---     ---   data
      C01340H     LINE      ---       ---     ---   #780
      C01340H     LINE      ---       ---     ---   #798
      C01342H     LINE      ---       ---     ---   #800
      C01356H     LINE      ---       ---     ---   #801
      C01360H     LINE      ---       ---     ---   #802
      C01362H     LINE      ---       ---     ---   #803
      C01364H     LINE      ---       ---     ---   #804
      C0136AH     LINE      ---       ---     ---   #805
L166 LINKER/LOCATER V5.29.2.0                                                         12/14/2020  10:56:44  PAGE 63


      C0136CH     LINE      ---       ---     ---   #808
      ---         BLOCKEND  LVL=0     ---     ---   

      C0136EH     BLOCK     LVL=0     0036H   ---   XcpReadMta
      000048H     SYMBOL    REG       ---     ---   size
      000009H     SYMBOL    REG       ---     ---   data
      C0136EH     LINE      ---       ---     ---   #820
      C0136EH     LINE      ---       ---     ---   #838
      C01370H     LINE      ---       ---     ---   #844
      C01384H     LINE      ---       ---     ---   #845
      C01386H     LINE      ---       ---     ---   #846
      C01398H     LINE      ---       ---     ---   #847
      C0139AH     LINE      ---       ---     ---   #848
      C013A0H     LINE      ---       ---     ---   #849
      C013A2H     LINE      ---       ---     ---   #852
      ---         BLOCKEND  LVL=0     ---     ---   

      C013A4H     BLOCK     LVL=0     0058H   ---   XcpFreeDaq
      C013A4H     LINE      ---       ---     ---   #870
      C013A4H     LINE      ---       ---     ---   #872
      C013B8H     LINE      ---       ---     ---   #874
      C013BCH     LINE      ---       ---     ---   #875
      C013C0H     LINE      ---       ---     ---   #876
      C013C4H     LINE      ---       ---     ---   #878
      C013D2H     LINE      ---       ---     ---   #879
      C013DAH     LINE      ---       ---     ---   #880
      C013E6H     LINE      ---       ---     ---   #882
      C013F6H     LINE      ---       ---     ---   #888
      C013FAH     LINE      ---       ---     ---   #890
      ---         BLOCKEND  LVL=0     ---     ---   

      C013FCH     BLOCK     LVL=0     011AH   ---   XcpAllocMemory
      C013FCH     BLOCK     LVL=1     0118H   ---   
      000007H     SYMBOL    REG       ---     ---   s
      ---         BLOCKEND  LVL=1     ---     ---   
      C013FCH     LINE      ---       ---     ---   #901
      C013FCH     LINE      ---       ---     ---   #902
      C013FCH     LINE      ---       ---     ---   #913
      C01426H     LINE      ---       ---     ---   #918
      C0142AH     LINE      ---       ---     ---   #922
      C01430H     LINE      ---       ---     ---   #924
      C01436H     LINE      ---       ---     ---   #925
      C01436H     LINE      ---       ---     ---   #940
      C01478H     LINE      ---       ---     ---   #957
      C014A8H     LINE      ---       ---     ---   #962
      C014BCH     LINE      ---       ---     ---   #978
      C014EAH     LINE      ---       ---     ---   #985
      C01504H     LINE      ---       ---     ---   #994
      C0150CH     LINE      ---       ---     ---   #996
      C01512H     LINE      ---       ---     ---   #997
      C01512H     LINE      ---       ---     ---   #1011
      C01514H     LINE      ---       ---     ---   #1013
      ---         BLOCKEND  LVL=0     ---     ---   

      C01516H     BLOCK     LVL=0     0010H   ---   XcpAllocDaq
      000048H     SYMBOL    REG       ---     ---   daqCount
      C01516H     LINE      ---       ---     ---   #1025
L166 LINKER/LOCATER V5.29.2.0                                                         12/14/2020  10:56:44  PAGE 64


      C01516H     LINE      ---       ---     ---   #1038
      C01520H     LINE      ---       ---     ---   #1040
      C01524H     LINE      ---       ---     ---   #1042
      ---         BLOCKEND  LVL=0     ---     ---   

      C01526H     BLOCK     LVL=0     005AH   ---   XcpAllocOdt
      000048H     SYMBOL    REG       ---     ---   daq
      000049H     SYMBOL    REG       ---     ---   odtCount
      C01526H     LINE      ---       ---     ---   #1054
      C01526H     LINE      ---       ---     ---   #1070
      C0153AH     LINE      ---       ---     ---   #1075
      C01540H     LINE      ---       ---     ---   #1076
      C01540H     LINE      ---       ---     ---   #1079
      C0155CH     LINE      ---       ---     ---   #1080
      C0156AH     LINE      ---       ---     ---   #1081
      C0157AH     LINE      ---       ---     ---   #1083
      C0157EH     LINE      ---       ---     ---   #1085
      ---         BLOCKEND  LVL=0     ---     ---   

      C01580H     BLOCK     LVL=0     008AH   ---   XcpAllocOdtEntry
      000048H     SYMBOL    REG       ---     ---   daq
      000049H     SYMBOL    REG       ---     ---   odt
      00004AH     SYMBOL    REG       ---     ---   odtEntryCount
      C01580H     BLOCK     LVL=1     0088H   ---   
      000082H     SYMBOL    REG       ---     ---   xcpFirstOdt
      ---         BLOCKEND  LVL=1     ---     ---   
      C01580H     LINE      ---       ---     ---   #1098
      C01580H     LINE      ---       ---     ---   #1099
      C01580H     LINE      ---       ---     ---   #1114
      C01596H     LINE      ---       ---     ---   #1116
      C0159CH     LINE      ---       ---     ---   #1117
      C0159CH     LINE      ---       ---     ---   #1118
      C015B0H     LINE      ---       ---     ---   #1119
      C015CCH     LINE      ---       ---     ---   #1120
      C015E2H     LINE      ---       ---     ---   #1121
      C01604H     LINE      ---       ---     ---   #1123
      C01608H     LINE      ---       ---     ---   #1125
      ---         BLOCKEND  LVL=0     ---     ---   

      C0160AH     BLOCK     LVL=0     003AH   ---   XcpStartDaq
      000048H     SYMBOL    REG       ---     ---   daq
      C0160AH     LINE      ---       ---     ---   #1135
      C0160AH     LINE      ---       ---     ---   #1138
      C0162AH     LINE      ---       ---     ---   #1140
      C01634H     LINE      ---       ---     ---   #1143
      C01642H     LINE      ---       ---     ---   #1144
      ---         BLOCKEND  LVL=0     ---     ---   

      C01644H     BLOCK     LVL=0     004EH   ---   XcpStartAllSelectedDaq
      C01644H     BLOCK     LVL=1     004CH   ---   
      000082H     SYMBOL    REG       ---     ---   daq
      ---         BLOCKEND  LVL=1     ---     ---   
      C01644H     LINE      ---       ---     ---   #1154
      C01644H     LINE      ---       ---     ---   #1155
      C01644H     LINE      ---       ---     ---   #1159
      C01648H     LINE      ---       ---     ---   #1161
      C0165EH     LINE      ---       ---     ---   #1163
L166 LINKER/LOCATER V5.29.2.0                                                         12/14/2020  10:56:44  PAGE 65


      C01664H     LINE      ---       ---     ---   #1164
      C01682H     LINE      ---       ---     ---   #1165
      C01690H     LINE      ---       ---     ---   #1167
      ---         BLOCKEND  LVL=0     ---     ---   

      C01692H     BLOCK     LVL=0     0062H   ---   XcpStopDaq
      000048H     SYMBOL    REG       ---     ---   daq
      C01692H     BLOCK     LVL=1     0060H   ---   
      00008CH     SYMBOL    REG       ---     ---   i
      ---         BLOCKEND  LVL=1     ---     ---   
      C01692H     LINE      ---       ---     ---   #1177
      C01692H     LINE      ---       ---     ---   #1178
      C01692H     LINE      ---       ---     ---   #1181
      C016B2H     LINE      ---       ---     ---   #1184
      C016B6H     LINE      ---       ---     ---   #1186
      C016CCH     LINE      ---       ---     ---   #1188
      C016CCH     LINE      ---       ---     ---   #1189
      C016DAH     LINE      ---       ---     ---   #1192
      C016EEH     LINE      ---       ---     ---   #1195
      C016F2H     LINE      ---       ---     ---   #1198
      ---         BLOCKEND  LVL=0     ---     ---   

      C016F4H     BLOCK     LVL=0     004EH   ---   XcpStopAllSelectedDaq
      C016F4H     BLOCK     LVL=1     004CH   ---   
      00008EH     SYMBOL    REG       ---     ---   daq
      ---         BLOCKEND  LVL=1     ---     ---   
      C016F4H     LINE      ---       ---     ---   #1208
      C016F4H     LINE      ---       ---     ---   #1209
      C016F4H     LINE      ---       ---     ---   #1212
      C016F8H     LINE      ---       ---     ---   #1214
      C0170EH     LINE      ---       ---     ---   #1216
      C01714H     LINE      ---       ---     ---   #1217
      C01732H     LINE      ---       ---     ---   #1218
      C01740H     LINE      ---       ---     ---   #1220
      ---         BLOCKEND  LVL=0     ---     ---   

      C01742H     BLOCK     LVL=0     004AH   ---   XcpStopAllDaq
      C01742H     BLOCK     LVL=1     0048H   ---   
      00008CH     SYMBOL    REG       ---     ---   daq
      ---         BLOCKEND  LVL=1     ---     ---   
      C01742H     LINE      ---       ---     ---   #1230
      C01742H     LINE      ---       ---     ---   #1231
      C01742H     LINE      ---       ---     ---   #1234
      C01746H     LINE      ---       ---     ---   #1236
      C01764H     LINE      ---       ---     ---   #1237
      C01772H     LINE      ---       ---     ---   #1239
      C01786H     LINE      ---       ---     ---   #1242
      C0178AH     LINE      ---       ---     ---   #1244
      ---         BLOCKEND  LVL=0     ---     ---   

      C0178CH     BLOCK     LVL=0     03C8H   ---   XcpEvent
      00004DH     SYMBOL    REG       ---     ---   event
      C01798H     BLOCK     LVL=1     03B0H   ---   
      000000H     SYMBOL    AUTO      ---     ---   dtop
      000004H     SYMBOL    AUTO      ---     ---   d
      000008H     SYMBOL    AUTO      ---     ---   status
      00000AH     SYMBOL    AUTO      ---     ---   e
L166 LINKER/LOCATER V5.29.2.0                                                         12/14/2020  10:56:44  PAGE 66


      00000CH     SYMBOL    AUTO      ---     ---   el
      00000EH     SYMBOL    AUTO      ---     ---   n
      00004EH     SYMBOL    REG       ---     ---   daq
      00004FH     SYMBOL    REG       ---     ---   odt
      000010H     SYMBOL    AUTO      ---     ---   i
      000012H     SYMBOL    AUTO      ---     ---   t
      C01B10H     SYMBOL    LABEL     ---     ---   next_odt
      C01866H     BLOCK     LVL=2     02AEH   ---   
      000014H     SYMBOL    AUTO      ---     ---   qs
      ---         BLOCKEND  LVL=2     ---     ---   
      ---         BLOCKEND  LVL=1     ---     ---   
      C0178CH     LINE      ---       ---     ---   #1269
      C01798H     LINE      ---       ---     ---   #1270
      C01798H     LINE      ---       ---     ---   #1287
      C0179EH     LINE      ---       ---     ---   #1289
      C017AAH     LINE      ---       ---     ---   #1291
      C017B0H     LINE      ---       ---     ---   #1292
      C017B0H     LINE      ---       ---     ---   #1314
      C017B6H     LINE      ---       ---     ---   #1316
      C017D2H     LINE      ---       ---     ---   #1318
      C017D2H     LINE      ---       ---     ---   #1319
      C017D2H     LINE      ---       ---     ---   #1320
      C017EEH     LINE      ---       ---     ---   #1322
      C017EEH     LINE      ---       ---     ---   #1323
      C017EEH     LINE      ---       ---     ---   #1328
      C0180CH     LINE      ---       ---     ---   #1329
      C01824H     LINE      ---       ---     ---   #1331
      C0184CH     LINE      ---       ---     ---   #1336
      C01866H     LINE      ---       ---     ---   #1337
      C01866H     LINE      ---       ---     ---   #1341
      C01870H     LINE      ---       ---     ---   #1344
      C01874H     LINE      ---       ---     ---   #1348
      C01884H     LINE      ---       ---     ---   #1350
      C0188EH     LINE      ---       ---     ---   #1351
      C018AEH     LINE      ---       ---     ---   #1352
      C018B2H     LINE      ---       ---     ---   #1353
      C018B2H     LINE      ---       ---     ---   #1355
      C018C4H     LINE      ---       ---     ---   #1356
      C018D4H     LINE      ---       ---     ---   #1358
      C018DEH     LINE      ---       ---     ---   #1359
      C018DEH     LINE      ---       ---     ---   #1361
      C018FCH     LINE      ---       ---     ---   #1379
      C01908H     LINE      ---       ---     ---   #1380
      C0190EH     LINE      ---       ---     ---   #1387
      C01926H     LINE      ---       ---     ---   #1389
      C01938H     LINE      ---       ---     ---   #1390
      C01958H     LINE      ---       ---     ---   #1391
      C01958H     LINE      ---       ---     ---   #1399
      C01970H     LINE      ---       ---     ---   #1403
      C0198AH     LINE      ---       ---     ---   #1406
      C01992H     LINE      ---       ---     ---   #1430
      C019A4H     LINE      ---       ---     ---   #1432
      C019BAH     LINE      ---       ---     ---   #1442
      C019C0H     LINE      ---       ---     ---   #1445
      C019C0H     LINE      ---       ---     ---   #1455
      C019DCH     LINE      ---       ---     ---   #1456
      C019F6H     LINE      ---       ---     ---   #1458
L166 LINKER/LOCATER V5.29.2.0                                                         12/14/2020  10:56:44  PAGE 67


      C019F6H     LINE      ---       ---     ---   #1459
      C019F6H     LINE      ---       ---     ---   #1460
      C01A14H     LINE      ---       ---     ---   #1461
      C01A2AH     LINE      ---       ---     ---   #1463
      C01A2CH     LINE      ---       ---     ---   #1465
      C01A46H     LINE      ---       ---     ---   #1466
      C01A4CH     LINE      ---       ---     ---   #1468
      C01A4CH     LINE      ---       ---     ---   #1469
      C01A4CH     LINE      ---       ---     ---   #1479
      C01A7AH     LINE      ---       ---     ---   #1480
      C01A8AH     LINE      ---       ---     ---   #1482
      C01A94H     LINE      ---       ---     ---   #1483
      C01AA0H     LINE      ---       ---     ---   #1484
      C01AD0H     LINE      ---       ---     ---   #1492
      C01ADEH     LINE      ---       ---     ---   #1494
      C01AF0H     LINE      ---       ---     ---   #1495
      C01AF2H     LINE      ---       ---     ---   #1498
      C01B06H     LINE      ---       ---     ---   #1499
      C01B10H     LINE      ---       ---     ---   #1500
      C01B10H     LINE      ---       ---     ---   #1505
      C01B10H     LINE      ---       ---     ---   #1507
      C01B14H     LINE      ---       ---     ---   #1509
      C01B32H     LINE      ---       ---     ---   #1517
      C01B44H     LINE      ---       ---     ---   #1523
      C01B48H     LINE      ---       ---     ---   #1528
      ---         BLOCKEND  LVL=0     ---     ---   

      C01B54H     BLOCK     LVL=0     00B6H   ---   XcpBackground
      C01B60H     BLOCK     LVL=1     00A0H   ---   
      00000DH     SYMBOL    REG       ---     ---   n
      C01B82H     BLOCK     LVL=2     0040H   ---   
      00008CH     SYMBOL    REG       ---     ---   data
      ---         BLOCKEND  LVL=2     ---     ---   
      ---         BLOCKEND  LVL=1     ---     ---   
      C01B54H     LINE      ---       ---     ---   #1635
      C01B56H     LINE      ---       ---     ---   #1656
      C01B60H     LINE      ---       ---     ---   #1657
      C01B60H     LINE      ---       ---     ---   #1661
      C01B66H     LINE      ---       ---     ---   #1663
      C01B68H     LINE      ---       ---     ---   #1664
      C01B70H     LINE      ---       ---     ---   #1665
      C01B72H     LINE      ---       ---     ---   #1668
      C01B76H     LINE      ---       ---     ---   #1669
      C01B82H     LINE      ---       ---     ---   #1670
      C01B82H     LINE      ---       ---     ---   #1673
      C01B82H     LINE      ---       ---     ---   #1674
      C01B82H     LINE      ---       ---     ---   #1676
      C01B92H     LINE      ---       ---     ---   #1694
      C01BB2H     LINE      ---       ---     ---   #1698
      C01BC0H     LINE      ---       ---     ---   #1699
      C01BC2H     LINE      ---       ---     ---   #1702
      C01BC6H     LINE      ---       ---     ---   #1707
      C01BD0H     LINE      ---       ---     ---   #1710
      C01BD4H     LINE      ---       ---     ---   #1711
      C01BD4H     LINE      ---       ---     ---   #1713
      C01BDEH     LINE      ---       ---     ---   #1715
      C01BF2H     LINE      ---       ---     ---   #1716
L166 LINKER/LOCATER V5.29.2.0                                                         12/14/2020  10:56:44  PAGE 68


      C01BFCH     LINE      ---       ---     ---   #1725
      C01C00H     LINE      ---       ---     ---   #1727
      C01C00H     LINE      ---       ---     ---   #1731
      C01C04H     LINE      ---       ---     ---   #1735
      C01C06H     LINE      ---       ---     ---   #1738
      ---         BLOCKEND  LVL=0     ---     ---   

      C01C0AH     BLOCK     LVL=0     0026H   ---   XcpDisconnect
      C01C0AH     LINE      ---       ---     ---   #1756
      C01C0AH     LINE      ---       ---     ---   #1761
      C01C1EH     LINE      ---       ---     ---   #1764
      C01C22H     LINE      ---       ---     ---   #1768
      C01C2EH     LINE      ---       ---     ---   #1772
      ---         BLOCKEND  LVL=0     ---     ---   

      C01C30H     BLOCK     LVL=0     08F2H   ---   XcpCommand
      000008H     SYMBOL    REG       ---     ---   pCommand
      C01C36H     BLOCK     LVL=1     08E4H   ---   
      00000EH     SYMBOL    REG       ---     ---   pCmd
      00004DH     SYMBOL    REG       ---     ---   err
      C02516H     SYMBOL    LABEL     ---     ---   positive_response
      C024F6H     SYMBOL    LABEL     ---     ---   negative_response
      C0251AH     SYMBOL    LABEL     ---     ---   no_response
      C02500H     SYMBOL    LABEL     ---     ---   negative_response1
      C01EBAH     BLOCK     LVL=2     0024H   ---   
      00008AH     SYMBOL    REG       ---     ---   seedLength
      ---         BLOCKEND  LVL=2     ---     ---   
      C01EFEH     BLOCK     LVL=2     0054H   ---   
      00008EH     SYMBOL    REG       ---     ---   resource
      ---         BLOCKEND  LVL=2     ---     ---   
      C01FCCH     BLOCK     LVL=2     0058H   ---   
      00008AH     SYMBOL    REG       ---     ---   size
      ---         BLOCKEND  LVL=2     ---     ---   
      C0206AH     BLOCK     LVL=2     004AH   ---   
      00008EH     SYMBOL    REG       ---     ---   size
      ---         BLOCKEND  LVL=2     ---     ---   
      C02118H     BLOCK     LVL=2     004AH   ---   
      000006H     SYMBOL    REG       ---     ---   s
      ---         BLOCKEND  LVL=2     ---     ---   
      C021FCH     BLOCK     LVL=2     0014H   ---   
      000088H     SYMBOL    REG       ---     ---   count
      ---         BLOCKEND  LVL=2     ---     ---   
      C02214H     BLOCK     LVL=2     001EH   ---   
      00008AH     SYMBOL    REG       ---     ---   daq
      000088H     SYMBOL    REG       ---     ---   count
      ---         BLOCKEND  LVL=2     ---     ---   
      C02236H     BLOCK     LVL=2     0024H   ---   
      00008CH     SYMBOL    REG       ---     ---   daq
      00008AH     SYMBOL    REG       ---     ---   odt
      000088H     SYMBOL    REG       ---     ---   count
      ---         BLOCKEND  LVL=2     ---     ---   
      C0225EH     BLOCK     LVL=2     005EH   ---   
      00008CH     SYMBOL    REG       ---     ---   daq
      ---         BLOCKEND  LVL=2     ---     ---   
      C022C0H     BLOCK     LVL=2     005EH   ---   
      000082H     SYMBOL    REG       ---     ---   daq
      00008EH     SYMBOL    REG       ---     ---   xcpPrescaler
L166 LINKER/LOCATER V5.29.2.0                                                         12/14/2020  10:56:44  PAGE 69


      000084H     SYMBOL    REG       ---     ---   event
      ---         BLOCKEND  LVL=2     ---     ---   
      C0231EH     BLOCK     LVL=2     005AH   ---   
      000088H     SYMBOL    REG       ---     ---   daq
      00008CH     SYMBOL    REG       ---     ---   odt
      00008EH     SYMBOL    REG       ---     ---   idx
      00008AH     SYMBOL    REG       ---     ---   odt0
      ---         BLOCKEND  LVL=2     ---     ---   
      C0237CH     BLOCK     LVL=2     007CH   ---   
      00000AH     SYMBOL    REG       ---     ---   addr
      ---         BLOCKEND  LVL=2     ---     ---   
      C023FCH     BLOCK     LVL=2     0080H   ---   
      000082H     SYMBOL    REG       ---     ---   daq
      ---         BLOCKEND  LVL=2     ---     ---   
      ---         BLOCKEND  LVL=1     ---     ---   
      C01C30H     LINE      ---       ---     ---   #1783
      C01C36H     LINE      ---       ---     ---   #1784
      C01C36H     LINE      ---       ---     ---   #1785
      C01C3AH     LINE      ---       ---     ---   #1800
      C01C44H     LINE      ---       ---     ---   #1805
      C01C4CH     LINE      ---       ---     ---   #1806
      C01C56H     LINE      ---       ---     ---   #1821
      C01C5EH     LINE      ---       ---     ---   #1823
      C01C62H     LINE      ---       ---     ---   #1825
      C01C6AH     LINE      ---       ---     ---   #1827
      C01C6AH     LINE      ---       ---     ---   #1832
      C01C76H     LINE      ---       ---     ---   #1836
      C01C82H     LINE      ---       ---     ---   #1838
      C01C8CH     LINE      ---       ---     ---   #1841
      C01C96H     LINE      ---       ---     ---   #1842
      C01CA0H     LINE      ---       ---     ---   #1844
      C01CAAH     LINE      ---       ---     ---   #1845
      C01CB4H     LINE      ---       ---     ---   #1848
      C01CBEH     LINE      ---       ---     ---   #1853
      C01CC8H     LINE      ---       ---     ---   #1856
      C01CCCH     LINE      ---       ---     ---   #1858
      C01CD8H     LINE      ---       ---     ---   #1872
      C01CDCH     LINE      ---       ---     ---   #1874
      C01CDCH     LINE      ---       ---     ---   #1879
      C01CECH     LINE      ---       ---     ---   #1883
      C01CFAH     LINE      ---       ---     ---   #1885
      C01D04H     LINE      ---       ---     ---   #1889
      C01D08H     LINE      ---       ---     ---   #1890
      C01D08H     LINE      ---       ---     ---   #1899
      C01D10H     LINE      ---       ---     ---   #1900
      C01D1AH     LINE      ---       ---     ---   #1902
      C01DB4H     LINE      ---       ---     ---   #1905
      C01DB4H     LINE      ---       ---     ---   #1908
      C01DBEH     LINE      ---       ---     ---   #1909
      C01DCAH     LINE      ---       ---     ---   #1910
      C01DCEH     LINE      ---       ---     ---   #1920
      C01DD2H     LINE      ---       ---     ---   #1924
      C01DD2H     LINE      ---       ---     ---   #1926
      C01DDCH     LINE      ---       ---     ---   #1931
      C01DE8H     LINE      ---       ---     ---   #1932
      C01DECH     LINE      ---       ---     ---   #1933
      C01DF0H     LINE      ---       ---     ---   #1934
L166 LINKER/LOCATER V5.29.2.0                                                         12/14/2020  10:56:44  PAGE 70


      C01DF4H     LINE      ---       ---     ---   #1935
      C01DFCH     LINE      ---       ---     ---   #1946
      C01E00H     LINE      ---       ---     ---   #1950
      C01E00H     LINE      ---       ---     ---   #1952
      C01E0AH     LINE      ---       ---     ---   #1953
      C01E0EH     LINE      ---       ---     ---   #1963
      C01E12H     LINE      ---       ---     ---   #1967
      C01E12H     LINE      ---       ---     ---   #1969
      C01E1CH     LINE      ---       ---     ---   #1970
      C01E20H     LINE      ---       ---     ---   #1971
      C01E28H     LINE      ---       ---     ---   #1974
      C01E34H     LINE      ---       ---     ---   #1976
      C01E42H     LINE      ---       ---     ---   #1977
      C01E6CH     LINE      ---       ---     ---   #1978
      C01E70H     LINE      ---       ---     ---   #1987
      C01E70H     LINE      ---       ---     ---   #1997
      C01E70H     LINE      ---       ---     ---   #2001
      C01E70H     LINE      ---       ---     ---   #2003
      C01E7AH     LINE      ---       ---     ---   #2004
      C01E82H     LINE      ---       ---     ---   #2007
      C01E8EH     LINE      ---       ---     ---   #2013
      C01E92H     LINE      ---       ---     ---   #2023
      C01E96H     LINE      ---       ---     ---   #2028
      C01E96H     LINE      ---       ---     ---   #2033
      C01EA0H     LINE      ---       ---     ---   #2036
      C01EA8H     LINE      ---       ---     ---   #2037
      C01EA8H     LINE      ---       ---     ---   #2057
      C01EBAH     LINE      ---       ---     ---   #2058
      C01EBAH     LINE      ---       ---     ---   #2060
      C01ECAH     LINE      ---       ---     ---   #2061
      C01ECEH     LINE      ---       ---     ---   #2064
      C01ED6H     LINE      ---       ---     ---   #2065
      C01ED6H     LINE      ---       ---     ---   #2066
      C01EDEH     LINE      ---       ---     ---   #2067
      C01EE0H     LINE      ---       ---     ---   #2071
      C01EE8H     LINE      ---       ---     ---   #2072
      C01EE8H     LINE      ---       ---     ---   #2073
      C01EFAH     LINE      ---       ---     ---   #2074
      C01EFAH     LINE      ---       ---     ---   #2084
      C01EFEH     LINE      ---       ---     ---   #2086
      C01EFEH     LINE      ---       ---     ---   #2087
      C01EFEH     LINE      ---       ---     ---   #2098
      C01F08H     LINE      ---       ---     ---   #2100
      C01F10H     LINE      ---       ---     ---   #2101
      C01F10H     LINE      ---       ---     ---   #2104
      C01F1EH     LINE      ---       ---     ---   #2105
      C01F22H     LINE      ---       ---     ---   #2109
      C01F26H     LINE      ---       ---     ---   #2110
      C01F2EH     LINE      ---       ---     ---   #2111
      C01F2EH     LINE      ---       ---     ---   #2115
      C01F44H     LINE      ---       ---     ---   #2118
      C01F48H     LINE      ---       ---     ---   #2119
      C01F52H     LINE      ---       ---     ---   #2120
      C01F52H     LINE      ---       ---     ---   #2121
      C01F52H     LINE      ---       ---     ---   #2130
      C01F56H     LINE      ---       ---     ---   #2137
      C01F56H     LINE      ---       ---     ---   #2146
L166 LINKER/LOCATER V5.29.2.0                                                         12/14/2020  10:56:44  PAGE 71


      C01F7AH     LINE      ---       ---     ---   #2155
      C01F7EH     LINE      ---       ---     ---   #2157
      C01F7EH     LINE      ---       ---     ---   #2167
      C01F88H     LINE      ---       ---     ---   #2168
      C01FA4H     LINE      ---       ---     ---   #2177
      C01FA8H     LINE      ---       ---     ---   #2385
      C01FA8H     LINE      ---       ---     ---   #2393
      C01FC8H     LINE      ---       ---     ---   #2403
      C01FCCH     LINE      ---       ---     ---   #2406
      C01FCCH     LINE      ---       ---     ---   #2407
      C01FCCH     LINE      ---       ---     ---   #2424
      C01FE0H     LINE      ---       ---     ---   #2426
      C01FE6H     LINE      ---       ---     ---   #2427
      C01FEAH     LINE      ---       ---     ---   #2429
      C01FF2H     LINE      ---       ---     ---   #2430
      C01FF2H     LINE      ---       ---     ---   #2432
      C02000H     LINE      ---       ---     ---   #2433
      C02006H     LINE      ---       ---     ---   #2435
      C02006H     LINE      ---       ---     ---   #2436
      C02006H     LINE      ---       ---     ---   #2437
      C0200CH     LINE      ---       ---     ---   #2439
      C02014H     LINE      ---       ---     ---   #2440
      C02014H     LINE      ---       ---     ---   #2441
      C0201CH     LINE      ---       ---     ---   #2443
      C02024H     LINE      ---       ---     ---   #2444
      C02024H     LINE      ---       ---     ---   #2458
      C02024H     LINE      ---       ---     ---   #2460
      C02024H     LINE      ---       ---     ---   #2476
      C02038H     LINE      ---       ---     ---   #2478
      C02046H     LINE      ---       ---     ---   #2479
      C0204CH     LINE      ---       ---     ---   #2481
      C0204CH     LINE      ---       ---     ---   #2482
      C0204CH     LINE      ---       ---     ---   #2483
      C02052H     LINE      ---       ---     ---   #2485
      C0205AH     LINE      ---       ---     ---   #2486
      C0205AH     LINE      ---       ---     ---   #2487
      C02062H     LINE      ---       ---     ---   #2489
      C0206AH     LINE      ---       ---     ---   #2490
      C0206AH     LINE      ---       ---     ---   #2502
      C0206AH     LINE      ---       ---     ---   #2506
      C0206AH     LINE      ---       ---     ---   #2507
      C0206AH     LINE      ---       ---     ---   #2508
      C02070H     LINE      ---       ---     ---   #2517
      C02074H     LINE      ---       ---     ---   #2519
      C0207CH     LINE      ---       ---     ---   #2520
      C0207CH     LINE      ---       ---     ---   #2521
      C0208CH     LINE      ---       ---     ---   #2522
      C0209CH     LINE      ---       ---     ---   #2523
      C020A4H     LINE      ---       ---     ---   #2525
      C020A4H     LINE      ---       ---     ---   #2526
      C020A4H     LINE      ---       ---     ---   #2527
      C020ACH     LINE      ---       ---     ---   #2529
      C020B4H     LINE      ---       ---     ---   #2530
      C020B4H     LINE      ---       ---     ---   #2545
      C020B4H     LINE      ---       ---     ---   #2547
      C020B4H     LINE      ---       ---     ---   #2562
      C020D4H     LINE      ---       ---     ---   #2563
L166 LINKER/LOCATER V5.29.2.0                                                         12/14/2020  10:56:44  PAGE 72


      C020EAH     LINE      ---       ---     ---   #2564
      C02100H     LINE      ---       ---     ---   #2565
      C02108H     LINE      ---       ---     ---   #2567
      C02108H     LINE      ---       ---     ---   #2568
      C02108H     LINE      ---       ---     ---   #2569
      C02110H     LINE      ---       ---     ---   #2571
      C02118H     LINE      ---       ---     ---   #2572
      C02118H     LINE      ---       ---     ---   #2587
      C02118H     LINE      ---       ---     ---   #2592
      C02118H     LINE      ---       ---     ---   #2593
      C02118H     LINE      ---       ---     ---   #2602
      C02122H     LINE      ---       ---     ---   #2610
      C0212EH     LINE      ---       ---     ---   #2614
      C02138H     LINE      ---       ---     ---   #2616
      C02144H     LINE      ---       ---     ---   #2617
      C02148H     LINE      ---       ---     ---   #2618
      C02152H     LINE      ---       ---     ---   #2620
      C02156H     LINE      ---       ---     ---   #2621
      C02156H     LINE      ---       ---     ---   #2653
      C0215EH     LINE      ---       ---     ---   #2655
      C02162H     LINE      ---       ---     ---   #2658
      C02162H     LINE      ---       ---     ---   #2671
      C02162H     LINE      ---       ---     ---   #2680
      C0216CH     LINE      ---       ---     ---   #2681
      C02170H     LINE      ---       ---     ---   #2683
      C02178H     LINE      ---       ---     ---   #2687
      C02180H     LINE      ---       ---     ---   #2694
      C02184H     LINE      ---       ---     ---   #2706
      C02190H     LINE      ---       ---     ---   #2715
      C02194H     LINE      ---       ---     ---   #2721
      C02194H     LINE      ---       ---     ---   #2730
      C0219EH     LINE      ---       ---     ---   #2731
      C021A8H     LINE      ---       ---     ---   #2732
      C021B2H     LINE      ---       ---     ---   #2733
      C021BCH     LINE      ---       ---     ---   #2734
      C021C6H     LINE      ---       ---     ---   #2740
      C021D0H     LINE      ---       ---     ---   #2741
      C021DCH     LINE      ---       ---     ---   #2754
      C021E0H     LINE      ---       ---     ---   #2800
      C021E0H     LINE      ---       ---     ---   #2809
      C021F4H     LINE      ---       ---     ---   #2811
      C021F8H     LINE      ---       ---     ---   #2820
      C021FCH     LINE      ---       ---     ---   #2822
      C021FCH     LINE      ---       ---     ---   #2823
      C021FCH     LINE      ---       ---     ---   #2824
      C02202H     LINE      ---       ---     ---   #2833
      C02210H     LINE      ---       ---     ---   #2842
      C02214H     LINE      ---       ---     ---   #2844
      C02214H     LINE      ---       ---     ---   #2845
      C02214H     LINE      ---       ---     ---   #2846
      C0221CH     LINE      ---       ---     ---   #2847
      C02222H     LINE      ---       ---     ---   #2863
      C02232H     LINE      ---       ---     ---   #2872
      C02236H     LINE      ---       ---     ---   #2874
      C02236H     LINE      ---       ---     ---   #2875
      C02236H     LINE      ---       ---     ---   #2876
      C0223EH     LINE      ---       ---     ---   #2877
L166 LINKER/LOCATER V5.29.2.0                                                         12/14/2020  10:56:44  PAGE 73


      C02244H     LINE      ---       ---     ---   #2878
      C02248H     LINE      ---       ---     ---   #2894
      C0225AH     LINE      ---       ---     ---   #2903
      C0225EH     LINE      ---       ---     ---   #2905
      C0225EH     LINE      ---       ---     ---   #2906
      C0225EH     LINE      ---       ---     ---   #2907
      C02266H     LINE      ---       ---     ---   #2923
      C02270H     LINE      ---       ---     ---   #2924
      C02286H     LINE      ---       ---     ---   #2926
      C0229CH     LINE      ---       ---     ---   #2933
      C022B8H     LINE      ---       ---     ---   #2935
      C022BCH     LINE      ---       ---     ---   #2945
      C022C0H     LINE      ---       ---     ---   #2947
      C022C0H     LINE      ---       ---     ---   #2948
      C022C0H     LINE      ---       ---     ---   #2949
      C022C8H     LINE      ---       ---     ---   #2951
      C022CEH     LINE      ---       ---     ---   #2953
      C022D8H     LINE      ---       ---     ---   #2987
      C022DCH     LINE      ---       ---     ---   #2989
      C022DEH     LINE      ---       ---     ---   #2990
      C022DEH     LINE      ---       ---     ---   #2991
      C022F0H     LINE      ---       ---     ---   #2996
      C02302H     LINE      ---       ---     ---   #2998
      C0231AH     LINE      ---       ---     ---   #3007
      C0231EH     LINE      ---       ---     ---   #3011
      C0231EH     LINE      ---       ---     ---   #3012
      C0231EH     LINE      ---       ---     ---   #3013
      C02328H     LINE      ---       ---     ---   #3014
      C0232EH     LINE      ---       ---     ---   #3015
      C02332H     LINE      ---       ---     ---   #3016
      C0234CH     LINE      ---       ---     ---   #3032
      C02356H     LINE      ---       ---     ---   #3033
      C02378H     LINE      ---       ---     ---   #3041
      C0237CH     LINE      ---       ---     ---   #3043
      C0237CH     LINE      ---       ---     ---   #3044
      C0237CH     LINE      ---       ---     ---   #3053
      C02390H     LINE      ---       ---     ---   #3065
      C023A8H     LINE      ---       ---     ---   #3067
      C023B2H     LINE      ---       ---     ---   #3068
      C023CEH     LINE      ---       ---     ---   #3069
      C023E6H     LINE      ---       ---     ---   #3071
      C023F8H     LINE      ---       ---     ---   #3080
      C023FCH     LINE      ---       ---     ---   #3082
      C023FCH     LINE      ---       ---     ---   #3083
      C023FCH     LINE      ---       ---     ---   #3084
      C02408H     LINE      ---       ---     ---   #3086
      C0241AH     LINE      ---       ---     ---   #3095
      C02428H     LINE      ---       ---     ---   #3097
      C02444H     LINE      ---       ---     ---   #3105
      C0244EH     LINE      ---       ---     ---   #3107
      C02454H     LINE      ---       ---     ---   #3108
      C02454H     LINE      ---       ---     ---   #3109
      C0245EH     LINE      ---       ---     ---   #3110
      C02474H     LINE      ---       ---     ---   #3111
      C02476H     LINE      ---       ---     ---   #3114
      C0247CH     LINE      ---       ---     ---   #3121
      C0247CH     LINE      ---       ---     ---   #3130
L166 LINKER/LOCATER V5.29.2.0                                                         12/14/2020  10:56:44  PAGE 74


      C0247EH     LINE      ---       ---     ---   #3132
      C0247EH     LINE      ---       ---     ---   #3141
      C02490H     LINE      ---       ---     ---   #3143
      C024AEH     LINE      ---       ---     ---   #3145
      C024B4H     LINE      ---       ---     ---   #3146
      C024B4H     LINE      ---       ---     ---   #3148
      C024BEH     LINE      ---       ---     ---   #3150
      C024C2H     LINE      ---       ---     ---   #3151
      C024C4H     LINE      ---       ---     ---   #3154
      C024C8H     LINE      ---       ---     ---   #3156
      C024CCH     LINE      ---       ---     ---   #3157
      C024CEH     LINE      ---       ---     ---   #3161
      C024D2H     LINE      ---       ---     ---   #3162
      C024D2H     LINE      ---       ---     ---   #3163
      C024D2H     LINE      ---       ---     ---   #3171
      C024D4H     LINE      ---       ---     ---   #3174
      C024D4H     LINE      ---       ---     ---   #3176
      C024DEH     LINE      ---       ---     ---   #3178
      C024F0H     LINE      ---       ---     ---   #3188
      C024F2H     LINE      ---       ---     ---   #3243
      C024F2H     LINE      ---       ---     ---   #3251
      C024F6H     LINE      ---       ---     ---   #3254
      C024F6H     LINE      ---       ---     ---   #3256
      C024F6H     LINE      ---       ---     ---   #3257
      C024F6H     LINE      ---       ---     ---   #3262
      C024F6H     LINE      ---       ---     ---   #3263
      C024F6H     LINE      ---       ---     ---   #3264
      C024F6H     LINE      ---       ---     ---   #3266
      C024F6H     LINE      ---       ---     ---   #3267
      C02500H     LINE      ---       ---     ---   #3270
      C02500H     LINE      ---       ---     ---   #3272
      C0250CH     LINE      ---       ---     ---   #3273
      C02516H     LINE      ---       ---     ---   #3281
      C02516H     LINE      ---       ---     ---   #3282
      C0251AH     LINE      ---       ---     ---   #3284
      C0251AH     LINE      ---       ---     ---   #3286
      C0251AH     LINE      ---       ---     ---   #3292
      ---         BLOCKEND  LVL=0     ---     ---   

      C02522H     BLOCK     LVL=0     007CH   ---   XcpSendCallBack
      C02522H     LINE      ---       ---     ---   #3309
      C02522H     LINE      ---       ---     ---   #3320
      C02536H     LINE      ---       ---     ---   #3325
      C0253EH     LINE      ---       ---     ---   #3327
      C02552H     LINE      ---       ---     ---   #3328
      C02556H     LINE      ---       ---     ---   #3330
      C0255AH     LINE      ---       ---     ---   #3331
      C0255AH     LINE      ---       ---     ---   #3335
      C02566H     LINE      ---       ---     ---   #3337
      C0257AH     LINE      ---       ---     ---   #3338
      C0257EH     LINE      ---       ---     ---   #3340
      C02582H     LINE      ---       ---     ---   #3341
      C02582H     LINE      ---       ---     ---   #3345
      C0258EH     LINE      ---       ---     ---   #3347
      C02596H     LINE      ---       ---     ---   #3350
      C0259AH     LINE      ---       ---     ---   #3351
      C0259AH     LINE      ---       ---     ---   #3358
L166 LINKER/LOCATER V5.29.2.0                                                         12/14/2020  10:56:44  PAGE 75


      C0259CH     LINE      ---       ---     ---   #3360
      ---         BLOCKEND  LVL=0     ---     ---   

      C0259EH     BLOCK     LVL=0     002CH   ---   XcpInit
      C0259EH     LINE      ---       ---     ---   #3378
      C0259EH     LINE      ---       ---     ---   #3385
      C025A2H     LINE      ---       ---     ---   #3388
      C025B2H     LINE      ---       ---     ---   #3391
      C025BCH     LINE      ---       ---     ---   #3396
      C025C4H     LINE      ---       ---     ---   #3400
      C025C8H     LINE      ---       ---     ---   #3406
      ---         BLOCKEND  LVL=0     ---     ---   

      C025CAH     BLOCK     LVL=0     0002H   ---   XcpExit
      C025CAH     LINE      ---       ---     ---   #3416
      C025CAH     LINE      ---       ---     ---   #3423
      ---         BLOCKEND  LVL=0     ---     ---   

      C025CCH     BLOCK     LVL=0     00A2H   ---   XcpSendEvent
      000000H     SYMBOL    AUTO      ---     ---   evc
      00000EH     SYMBOL    REG       ---     ---   c
      00004DH     SYMBOL    REG       ---     ---   len
      C025DAH     BLOCK     LVL=1     008AH   ---   
      00008EH     SYMBOL    REG       ---     ---   i
      ---         BLOCKEND  LVL=1     ---     ---   
      C025CCH     LINE      ---       ---     ---   #3558
      C025DAH     LINE      ---       ---     ---   #3559
      C025DAH     LINE      ---       ---     ---   #3567
      C025DCH     LINE      ---       ---     ---   #3569
      C025E4H     LINE      ---       ---     ---   #3571
      C025E4H     LINE      ---       ---     ---   #3572
      C025F0H     LINE      ---       ---     ---   #3576
      C025FCH     LINE      ---       ---     ---   #3577
      C02606H     LINE      ---       ---     ---   #3578
      C02610H     LINE      ---       ---     ---   #3580
      C02616H     LINE      ---       ---     ---   #3582
      C0261CH     LINE      ---       ---     ---   #3584
      C02620H     LINE      ---       ---     ---   #3586
      C02636H     LINE      ---       ---     ---   #3587
      C02644H     LINE      ---       ---     ---   #3588
      C0264CH     LINE      ---       ---     ---   #3589
      C0264EH     LINE      ---       ---     ---   #3592
      C02660H     LINE      ---       ---     ---   #3593
      C02660H     LINE      ---       ---     ---   #3594
      C02660H     LINE      ---       ---     ---   #3608
      C02664H     LINE      ---       ---     ---   #3610
      ---         BLOCKEND  LVL=0     ---     ---   
      C001B6H     PUBLIC    LABEL     ---     ---   ApplXcpInterruptEnable
      C0018EH     PUBLIC    LABEL     ---     ---   XcpCanInit
      C00192H     PUBLIC    LABEL     ---     ---   XcpCanSend
      C001B4H     PUBLIC    LABEL     ---     ---   ApplXcpInterruptDisable
      C00190H     PUBLIC    LABEL     ---     ---   XcpCanBackground

      C0018EH     BLOCK     LVL=0     0002H   ---   XcpCanInit
      C0018EH     LINE      ---       ---     ---   #5
      C0018EH     LINE      ---       ---     ---   #7
      ---         BLOCKEND  LVL=0     ---     ---   
L166 LINKER/LOCATER V5.29.2.0                                                         12/14/2020  10:56:44  PAGE 76



      C00190H     BLOCK     LVL=0     0002H   ---   XcpCanBackground
      C00190H     LINE      ---       ---     ---   #9
      C00190H     LINE      ---       ---     ---   #11
      ---         BLOCKEND  LVL=0     ---     ---   

      C00192H     BLOCK     LVL=0     0022H   ---   XcpCanSend
      000048H     SYMBOL    REG       ---     ---   len
      000006H     SYMBOL    REG       ---     ---   msg
      C00192H     LINE      ---       ---     ---   #13
      C00196H     LINE      ---       ---     ---   #15
      C0019EH     LINE      ---       ---     ---   #16
      C0019EH     LINE      ---       ---     ---   #18
      C001A8H     LINE      ---       ---     ---   #19
      C001AEH     LINE      ---       ---     ---   #21
      C001B2H     LINE      ---       ---     ---   #22
      ---         BLOCKEND  LVL=0     ---     ---   

      C001B4H     BLOCK     LVL=0     0002H   ---   ApplXcpInterruptDisable
      C001B4H     LINE      ---       ---     ---   #24
      C001B4H     LINE      ---       ---     ---   #26
      ---         BLOCKEND  LVL=0     ---     ---   

      C001B6H     BLOCK     LVL=0     0002H   ---   ApplXcpInterruptEnable
      C001B6H     LINE      ---       ---     ---   #28
      C001B6H     LINE      ---       ---     ---   #30
      ---         BLOCKEND  LVL=0     ---     ---   
      C06C60H     GLOBAL    LABEL     ---     ---   main
      C06D08H     PUBLIC    LABEL     ---     ---   app_10ms_task
      C06CBEH     PUBLIC    LABEL     ---     ---   app_init
      C06D26H     PUBLIC    LABEL     ---     ---   app_5ms_task
      C06D2CH     PUBLIC    LABEL     ---     ---   app_mainloop_task
      E00318H     PUBLIC    VAR       ---     ---   TryValue9
      E0031AH     PUBLIC    VAR       ---     ---   TryValue8
      E0031CH     PUBLIC    VAR       ---     ---   TryValue7
      E0031EH     PUBLIC    VAR       ---     ---   TryValue6
      E00320H     PUBLIC    VAR       ---     ---   TryValue5
      E00322H     PUBLIC    VAR       ---     ---   TryValue4
      E00324H     PUBLIC    VAR       ---     ---   TryValue3
      E00326H     PUBLIC    VAR       ---     ---   TryValue2
      E00328H     PUBLIC    VAR       ---     ---   TryValue1
      E0032AH     PUBLIC    VAR       ---     ---   TryValue13
      E0032EH     PUBLIC    VAR       ---     ---   TryValue12
      E00330H     PUBLIC    VAR       ---     ---   TryValue11
      E00332H     PUBLIC    VAR       ---     ---   TryValue10

      C06C60H     BLOCK     LVL=0     005EH   ---   main
      C06C60H     LINE      ---       ---     ---   #44
      C06C60H     LINE      ---       ---     ---   #46
      C06C64H     LINE      ---       ---     ---   #48
      C06C64H     LINE      ---       ---     ---   #52
      C06C6CH     LINE      ---       ---     ---   #54
      C06C70H     LINE      ---       ---     ---   #55
      C06C74H     LINE      ---       ---     ---   #57
      C06C7CH     LINE      ---       ---     ---   #58
      C06C84H     LINE      ---       ---     ---   #59
      C06C8CH     LINE      ---       ---     ---   #60
L166 LINKER/LOCATER V5.29.2.0                                                         12/14/2020  10:56:44  PAGE 77


      C06C94H     LINE      ---       ---     ---   #64
      C06C9CH     LINE      ---       ---     ---   #73
      C06CA8H     LINE      ---       ---     ---   #75
      C06CA8H     LINE      ---       ---     ---   #79
      C06CB0H     LINE      ---       ---     ---   #81
      C06CB4H     LINE      ---       ---     ---   #82
      C06CB8H     LINE      ---       ---     ---   #83
      C06CB8H     LINE      ---       ---     ---   #87
      C06CBCH     LINE      ---       ---     ---   #90
      ---         BLOCKEND  LVL=0     ---     ---   

      C06CBEH     BLOCK     LVL=0     004AH   ---   app_init
      C06CBEH     LINE      ---       ---     ---   #96
      C06CBEH     LINE      ---       ---     ---   #101
      C06CC2H     LINE      ---       ---     ---   #104
      C06CC6H     LINE      ---       ---     ---   #108
      C06CCAH     LINE      ---       ---     ---   #112
      C06CD0H     LINE      ---       ---     ---   #116
      C06CD8H     LINE      ---       ---     ---   #117
      C06CE0H     LINE      ---       ---     ---   #120
      C06CE6H     LINE      ---       ---     ---   #123
      C06CE8H     LINE      ---       ---     ---   #126
      C06CEAH     LINE      ---       ---     ---   #128
      C06CECH     LINE      ---       ---     ---   #132
      C06CF6H     LINE      ---       ---     ---   #136
      C06CFCH     LINE      ---       ---     ---   #139
      C06D00H     LINE      ---       ---     ---   #143
      C06D06H     LINE      ---       ---     ---   #146
      ---         BLOCKEND  LVL=0     ---     ---   

      C06D08H     BLOCK     LVL=0     001EH   ---   app_10ms_task
      C06D08H     LINE      ---       ---     ---   #151
      C06D08H     LINE      ---       ---     ---   #153
      C06D0CH     LINE      ---       ---     ---   #155
      C06D10H     LINE      ---       ---     ---   #158
      C06D14H     LINE      ---       ---     ---   #160
      C06D18H     LINE      ---       ---     ---   #163
      C06D1CH     LINE      ---       ---     ---   #167
      C06D1EH     LINE      ---       ---     ---   #169
      C06D24H     LINE      ---       ---     ---   #170
      ---         BLOCKEND  LVL=0     ---     ---   

      C06D26H     BLOCK     LVL=0     0006H   ---   app_5ms_task
      C06D26H     LINE      ---       ---     ---   #177
      C06D26H     LINE      ---       ---     ---   #179
      C06D2AH     LINE      ---       ---     ---   #180
      ---         BLOCKEND  LVL=0     ---     ---   

      C06D2CH     BLOCK     LVL=0     0006H   ---   app_mainloop_task
      C06D2CH     LINE      ---       ---     ---   #185
      C06D2CH     LINE      ---       ---     ---   #193
      C06D30H     LINE      ---       ---     ---   #194
      ---         BLOCKEND  LVL=0     ---     ---   
      C05E54H     PUBLIC    LABEL     ---     ---   isr_5ms_hook_user
      C0601AH     PUBLIC    LABEL     ---     ---   transmit_can_data_1ms
      C05EB0H     PUBLIC    LABEL     ---     ---   isr_1ms_hook_user
      C05EF0H     PUBLIC    LABEL     ---     ---   transmit_can_data_10ms
L166 LINKER/LOCATER V5.29.2.0                                                         12/14/2020  10:56:44  PAGE 78


      C05EACH     PUBLIC    LABEL     ---     ---   isr_10ms_hook_user
      C05ECEH     PUBLIC    LABEL     ---     ---   can_do_obj
      C04014H     PUBLIC    VAR       ---     ---   C_VAL_DISP_INITIAL
      E003AAH     PUBLIC    VAR       ---     ---   TryVqs
      E003ACH     PUBLIC    VAR       ---     ---   g_mc_pressure
      E003AEH     PUBLIC    VAR       ---     ---   g_ctrl_test_timer_uw
      E003B0H     PUBLIC    VAR       ---     ---   test_dir
      E003B2H     PUBLIC    VAR       ---     ---   motor_offset
      00A8E2H     PUBLIC    VAR       ---     ---   g_pid_pres_ctrl

      C05E54H     BLOCK     LVL=0     0058H   ---   isr_5ms_hook_user
      C05E54H     LINE      ---       ---     ---   #102
      C05E54H     LINE      ---       ---     ---   #104
      C05E5CH     LINE      ---       ---     ---   #121
      C05E72H     LINE      ---       ---     ---   #123
      C05E72H     LINE      ---       ---     ---   #124
      C05E72H     LINE      ---       ---     ---   #126
      C05E72H     LINE      ---       ---     ---   #128
      C05E78H     LINE      ---       ---     ---   #129
      C05E80H     LINE      ---       ---     ---   #130
      C05E88H     LINE      ---       ---     ---   #131
      C05E90H     LINE      ---       ---     ---   #132
      C05E92H     LINE      ---       ---     ---   #134
      C05E92H     LINE      ---       ---     ---   #135
      C05E98H     LINE      ---       ---     ---   #136
      C05EA0H     LINE      ---       ---     ---   #137
      C05EA2H     LINE      ---       ---     ---   #139
      C05EA2H     LINE      ---       ---     ---   #140
      C05EA8H     LINE      ---       ---     ---   #141
      C05EA8H     LINE      ---       ---     ---   #142
      C05EA8H     LINE      ---       ---     ---   #145
      C05EAAH     LINE      ---       ---     ---   #146
      ---         BLOCKEND  LVL=0     ---     ---   

      C05EACH     BLOCK     LVL=0     0004H   ---   isr_10ms_hook_user
      C05EACH     LINE      ---       ---     ---   #151
      C05EACH     LINE      ---       ---     ---   #154
      C05EAEH     LINE      ---       ---     ---   #156
      ---         BLOCKEND  LVL=0     ---     ---   

      C05EB0H     BLOCK     LVL=0     001EH   ---   isr_1ms_hook_user
      C05EB0H     BLOCK     LVL=1     001CH   ---   
      E003B4H     SYMBOL    VAR       ---     ---   tmx
      ---         BLOCKEND  LVL=1     ---     ---   
      C05EB0H     LINE      ---       ---     ---   #161
      C05EB0H     LINE      ---       ---     ---   #162
      C05EB0H     LINE      ---       ---     ---   #166
      C05EB4H     LINE      ---       ---     ---   #168
      C05EC2H     LINE      ---       ---     ---   #170
      C05EC6H     LINE      ---       ---     ---   #171
      C05ECAH     LINE      ---       ---     ---   #172
      C05ECAH     LINE      ---       ---     ---   #174
      C05ECCH     LINE      ---       ---     ---   #175
      ---         BLOCKEND  LVL=0     ---     ---   

      C05ECEH     BLOCK     LVL=0     0022H   ---   can_do_obj
      000008H     SYMBOL    REG       ---     ---   id
L166 LINKER/LOCATER V5.29.2.0                                                         12/14/2020  10:56:44  PAGE 79


      00004AH     SYMBOL    REG       ---     ---   cfg
      00000BH     SYMBOL    REG       ---     ---   buf
      C05ECEH     LINE      ---       ---     ---   #180
      C05ECEH     LINE      ---       ---     ---   #185
      C05ED6H     LINE      ---       ---     ---   #186
      C05EDAH     LINE      ---       ---     ---   #188
      C05EE6H     LINE      ---       ---     ---   #189
      C05EECH     LINE      ---       ---     ---   #191
      C05EEEH     LINE      ---       ---     ---   #192
      ---         BLOCKEND  LVL=0     ---     ---   

      C05EF0H     BLOCK     LVL=0     012AH   ---   transmit_can_data_10ms
      C05EF4H     BLOCK     LVL=1     0120H   ---   
      000000H     SYMBOL    AUTO      ---     ---   bufx
      ---         BLOCKEND  LVL=1     ---     ---   
      C05EF0H     LINE      ---       ---     ---   #197
      C05EF4H     LINE      ---       ---     ---   #198
      C05EF4H     LINE      ---       ---     ---   #250
      C05EF8H     LINE      ---       ---     ---   #251
      C05EFEH     LINE      ---       ---     ---   #252
      C05F04H     LINE      ---       ---     ---   #253
      C05F0AH     LINE      ---       ---     ---   #254
      C05F10H     LINE      ---       ---     ---   #255
      C05F16H     LINE      ---       ---     ---   #256
      C05F1CH     LINE      ---       ---     ---   #257
      C05F22H     LINE      ---       ---     ---   #259
      C05F34H     LINE      ---       ---     ---   #260
      C05F3CH     LINE      ---       ---     ---   #262
      C05F40H     LINE      ---       ---     ---   #263
      C05F46H     LINE      ---       ---     ---   #264
      C05F4CH     LINE      ---       ---     ---   #265
      C05F52H     LINE      ---       ---     ---   #266
      C05F58H     LINE      ---       ---     ---   #267
      C05F5EH     LINE      ---       ---     ---   #268
      C05F64H     LINE      ---       ---     ---   #269
      C05F6AH     LINE      ---       ---     ---   #271
      C05F7CH     LINE      ---       ---     ---   #272
      C05F84H     LINE      ---       ---     ---   #274
      C05F88H     LINE      ---       ---     ---   #275
      C05F8EH     LINE      ---       ---     ---   #276
      C05F94H     LINE      ---       ---     ---   #277
      C05F9AH     LINE      ---       ---     ---   #278
      C05FA0H     LINE      ---       ---     ---   #279
      C05FA6H     LINE      ---       ---     ---   #280
      C05FACH     LINE      ---       ---     ---   #281
      C05FB2H     LINE      ---       ---     ---   #283
      C05FC4H     LINE      ---       ---     ---   #284
      C05FCCH     LINE      ---       ---     ---   #286
      C05FD0H     LINE      ---       ---     ---   #287
      C05FD6H     LINE      ---       ---     ---   #288
      C05FDCH     LINE      ---       ---     ---   #289
      C05FE2H     LINE      ---       ---     ---   #290
      C05FE8H     LINE      ---       ---     ---   #291
      C05FEEH     LINE      ---       ---     ---   #292
      C05FF4H     LINE      ---       ---     ---   #293
      C05FFAH     LINE      ---       ---     ---   #295
      C0600CH     LINE      ---       ---     ---   #296
L166 LINKER/LOCATER V5.29.2.0                                                         12/14/2020  10:56:44  PAGE 80


      C06014H     LINE      ---       ---     ---   #298
      ---         BLOCKEND  LVL=0     ---     ---   

      C0601AH     BLOCK     LVL=0     0002H   ---   transmit_can_data_1ms
      C0601AH     LINE      ---       ---     ---   #303
      C0601AH     LINE      ---       ---     ---   #361
      ---         BLOCKEND  LVL=0     ---     ---   
      C0712CH     PUBLIC    LABEL     ---     ---   isr_main_timer
      C0711AH     PUBLIC    LABEL     ---     ---   main_task_init

      C0711AH     BLOCK     LVL=0     0012H   ---   main_task_init
      C0711AH     LINE      ---       ---     ---   #15
      C0711AH     LINE      ---       ---     ---   #17
      C0711EH     LINE      ---       ---     ---   #18
      C07122H     LINE      ---       ---     ---   #20
      C07124H     LINE      ---       ---     ---   #21
      C07128H     LINE      ---       ---     ---   #22
      C0712AH     LINE      ---       ---     ---   #23
      ---         BLOCKEND  LVL=0     ---     ---   

      C0712CH     BLOCK     LVL=0     0010H   ---   isr_main_timer
      C0712CH     LINE      ---       ---     ---   #28
      C07130H     LINE      ---       ---     ---   #30
      C07132H     LINE      ---       ---     ---   #31
      C07136H     LINE      ---       ---     ---   #32
      C07138H     LINE      ---       ---     ---   #37
      ---         BLOCKEND  LVL=0     ---     ---   
      C05008H     PUBLIC    LABEL     ---     ---   resolver_ad2s_read_pos
      C04DEEH     PUBLIC    LABEL     ---     ---   resolver_ad2s_init
      C04F54H     PUBLIC    LABEL     ---     ---   resolver_ad2s_read
      C04E06H     PUBLIC    LABEL     ---     ---   resolver_ad2s_wr_cfg
      C04EB4H     PUBLIC    LABEL     ---     ---   resolver_ad2s_rd_cfg
      E0037AH     PUBLIC    VAR       ---     ---   g_resolver_pos0_uw
      E0037CH     PUBLIC    VAR       ---     ---   g_total_angle0_sl
      E00380H     PUBLIC    VAR       ---     ---   g_resolver_pos_uw
      E00382H     PUBLIC    VAR       ---     ---   g_total_angle_sl

      C04DEEH     BLOCK     LVL=0     0018H   ---   resolver_ad2s_init
      000048H     SYMBOL    REG       ---     ---   option
      C04DEEH     LINE      ---       ---     ---   #24
      C04DEEH     LINE      ---       ---     ---   #28
      C04DFAH     LINE      ---       ---     ---   #29
      C04E02H     LINE      ---       ---     ---   #30
      C04E04H     LINE      ---       ---     ---   #31
      ---         BLOCKEND  LVL=0     ---     ---   

      C04E06H     BLOCK     LVL=0     00AEH   ---   resolver_ad2s_wr_cfg
      00004EH     SYMBOL    REG       ---     ---   addr
      00004DH     SYMBOL    REG       ---     ---   dat
      C04E06H     LINE      ---       ---     ---   #36
      C04E0EH     LINE      ---       ---     ---   #38
      C04E16H     LINE      ---       ---     ---   #39
      C04E1EH     LINE      ---       ---     ---   #40
      C04E26H     LINE      ---       ---     ---   #41
      C04E4AH     LINE      ---       ---     ---   #42
      C04E58H     LINE      ---       ---     ---   #43
      C04E60H     LINE      ---       ---     ---   #44
L166 LINKER/LOCATER V5.29.2.0                                                         12/14/2020  10:56:44  PAGE 81


      C04E68H     LINE      ---       ---     ---   #45
      C04E76H     LINE      ---       ---     ---   #46
      C04E7EH     LINE      ---       ---     ---   #47
      C04E86H     LINE      ---       ---     ---   #49
      C04EA8H     LINE      ---       ---     ---   #50
      C04EAEH     LINE      ---       ---     ---   #51
      ---         BLOCKEND  LVL=0     ---     ---   

      C04EB4H     BLOCK     LVL=0     00A0H   ---   resolver_ad2s_rd_cfg
      00004DH     SYMBOL    REG       ---     ---   addr
      C04EBAH     BLOCK     LVL=1     0094H   ---   
      00000EH     SYMBOL    REG       ---     ---   res
      ---         BLOCKEND  LVL=1     ---     ---   
      C04EB4H     LINE      ---       ---     ---   #56
      C04EBAH     LINE      ---       ---     ---   #57
      C04EBAH     LINE      ---       ---     ---   #58
      C04EBCH     LINE      ---       ---     ---   #60
      C04EC4H     LINE      ---       ---     ---   #61
      C04ECCH     LINE      ---       ---     ---   #62
      C04ED4H     LINE      ---       ---     ---   #63
      C04EF8H     LINE      ---       ---     ---   #64
      C04F06H     LINE      ---       ---     ---   #65
      C04F0EH     LINE      ---       ---     ---   #66
      C04F30H     LINE      ---       ---     ---   #67
      C04F38H     LINE      ---       ---     ---   #68
      C04F3CH     LINE      ---       ---     ---   #69
      C04F44H     LINE      ---       ---     ---   #70
      C04F4CH     LINE      ---       ---     ---   #72
      C04F4EH     LINE      ---       ---     ---   #73
      ---         BLOCKEND  LVL=0     ---     ---   

      C04F54H     BLOCK     LVL=0     00B4H   ---   resolver_ad2s_read
      000048H     SYMBOL    REG       ---     ---   option
      C04F5AH     BLOCK     LVL=1     00A6H   ---   
      00004DH     SYMBOL    REG       ---     ---   val
      00000EH     SYMBOL    REG       ---     ---   res
      ---         BLOCKEND  LVL=1     ---     ---   
      C04F54H     LINE      ---       ---     ---   #78
      C04F5AH     LINE      ---       ---     ---   #79
      C04F5AH     LINE      ---       ---     ---   #81
      C04F5EH     LINE      ---       ---     ---   #85
      C04F60H     LINE      ---       ---     ---   #86
      C04F68H     LINE      ---       ---     ---   #87
      C04F70H     LINE      ---       ---     ---   #89
      C04F78H     LINE      ---       ---     ---   #90
      C04F80H     LINE      ---       ---     ---   #92
      C04F88H     LINE      ---       ---     ---   #93
      C04F8EH     LINE      ---       ---     ---   #94
      C04F94H     LINE      ---       ---     ---   #95
      C04F9CH     LINE      ---       ---     ---   #97
      C04FA4H     LINE      ---       ---     ---   #98
      C04FACH     LINE      ---       ---     ---   #99
      C04FC0H     LINE      ---       ---     ---   #100
      C04FC8H     LINE      ---       ---     ---   #102
      C04FD0H     LINE      ---       ---     ---   #103
      C04FD8H     LINE      ---       ---     ---   #104
      C04FECH     LINE      ---       ---     ---   #105
L166 LINKER/LOCATER V5.29.2.0                                                         12/14/2020  10:56:44  PAGE 82


      C04FF4H     LINE      ---       ---     ---   #107
      C04FFCH     LINE      ---       ---     ---   #109
      C05000H     LINE      ---       ---     ---   #110
      ---         BLOCKEND  LVL=0     ---     ---   

      C05008H     BLOCK     LVL=0     0122H   ---   resolver_ad2s_read_pos
      000048H     SYMBOL    REG       ---     ---   option
      C0500AH     BLOCK     LVL=1     011CH   ---   
      00000DH     SYMBOL    REG       ---     ---   res
      ---         BLOCKEND  LVL=1     ---     ---   
      C05008H     LINE      ---       ---     ---   #115
      C0500AH     LINE      ---       ---     ---   #116
      C0500AH     LINE      ---       ---     ---   #117
      C0500CH     LINE      ---       ---     ---   #122
      C0500EH     LINE      ---       ---     ---   #123
      C05016H     LINE      ---       ---     ---   #124
      C0501EH     LINE      ---       ---     ---   #127
      C05026H     LINE      ---       ---     ---   #128
      C0502EH     LINE      ---       ---     ---   #131
      C05036H     LINE      ---       ---     ---   #132
      C0505AH     LINE      ---       ---     ---   #133
      C05064H     LINE      ---       ---     ---   #134
      C0506CH     LINE      ---       ---     ---   #135
      C0508EH     LINE      ---       ---     ---   #136
      C05096H     LINE      ---       ---     ---   #137
      C0509AH     LINE      ---       ---     ---   #138
      C050A2H     LINE      ---       ---     ---   #141
      C050AAH     LINE      ---       ---     ---   #142
      C050CEH     LINE      ---       ---     ---   #143
      C050D8H     LINE      ---       ---     ---   #144
      C050E0H     LINE      ---       ---     ---   #145
      C05102H     LINE      ---       ---     ---   #146
      C0510AH     LINE      ---       ---     ---   #147
      C0510CH     LINE      ---       ---     ---   #148
      C05112H     LINE      ---       ---     ---   #149
      C0511AH     LINE      ---       ---     ---   #152
      C05122H     LINE      ---       ---     ---   #155
      C05124H     LINE      ---       ---     ---   #156
      C05126H     LINE      ---       ---     ---   #158
      ---         BLOCKEND  LVL=0     ---     ---   
      C0699AH     PUBLIC    LABEL     ---     ---   pwm_init
      C069CEH     PUBLIC    LABEL     ---     ---   pwm_setduty
      C06A40H     PUBLIC    LABEL     ---     ---   set_phase_on

      C0699AH     BLOCK     LVL=0     0034H   ---   pwm_init
      C0699AH     LINE      ---       ---     ---   #16
      C0699AH     LINE      ---       ---     ---   #18
      C069A2H     LINE      ---       ---     ---   #19
      C069AAH     LINE      ---       ---     ---   #20
      C069B2H     LINE      ---       ---     ---   #22
      C069BAH     LINE      ---       ---     ---   #23
      C069C2H     LINE      ---       ---     ---   #24
      C069CAH     LINE      ---       ---     ---   #26
      C069CCH     LINE      ---       ---     ---   #27
      ---         BLOCKEND  LVL=0     ---     ---   

      C069CEH     BLOCK     LVL=0     0072H   ---   pwm_setduty
L166 LINKER/LOCATER V5.29.2.0                                                         12/14/2020  10:56:44  PAGE 83


      000048H     SYMBOL    REG       ---     ---   ch_num
      000009H     SYMBOL    REG       ---     ---   duty
      C069CEH     LINE      ---       ---     ---   #31
      C069CEH     LINE      ---       ---     ---   #34
      C069D4H     LINE      ---       ---     ---   #35
      C069D8H     LINE      ---       ---     ---   #37
      C069DEH     LINE      ---       ---     ---   #38
      C069E2H     LINE      ---       ---     ---   #41
      C069F0H     LINE      ---       ---     ---   #45
      C06A0AH     LINE      ---       ---     ---   #46
      C06A24H     LINE      ---       ---     ---   #47
      C06A3CH     LINE      ---       ---     ---   #49
      C06A3CH     LINE      ---       ---     ---   #50
      C06A3CH     LINE      ---       ---     ---   #52
      C06A3EH     LINE      ---       ---     ---   #53
      ---         BLOCKEND  LVL=0     ---     ---   

      C06A40H     BLOCK     LVL=0     0070H   ---   set_phase_on
      000048H     SYMBOL    REG       ---     ---   phase_no
      000049H     SYMBOL    REG       ---     ---   on_off
      C06A40H     LINE      ---       ---     ---   #58
      C06A40H     LINE      ---       ---     ---   #62
      C06A4EH     LINE      ---       ---     ---   #65
      C06A4EH     LINE      ---       ---     ---   #66
      C06A6EH     LINE      ---       ---     ---   #67
      C06A6EH     LINE      ---       ---     ---   #68
      C06A8EH     LINE      ---       ---     ---   #69
      C06A8EH     LINE      ---       ---     ---   #70
      C06AACH     LINE      ---       ---     ---   #71
      C06AACH     LINE      ---       ---     ---   #72
      C06AACH     LINE      ---       ---     ---   #73
      C06AACH     LINE      ---       ---     ---   #75
      C06AAEH     LINE      ---       ---     ---   #76
      ---         BLOCKEND  LVL=0     ---     ---   
      C036A6H     PUBLIC    LABEL     ---     ---   do_motor_bldc_ctrl
      C039FAH     PUBLIC    LABEL     ---     ---   isr_100us_timer_hook_user
      C0344EH     PUBLIC    LABEL     ---     ---   do_motor_bldc_debug
      C03980H     PUBLIC    LABEL     ---     ---   calc_mot_speed
      C038F6H     PUBLIC    LABEL     ---     ---   calc_mot_total_angle
      C04000H     SYMBOL    VAR       ---     ---   ?tpl?0002
      C04006H     SYMBOL    VAR       ---     ---   ?tpl?0001
      E002BEH     PUBLIC    VAR       ---     ---   g_stall_time
      E002C0H     PUBLIC    VAR       ---     ---   g_slot_idx_ss
      E002C2H     PUBLIC    VAR       ---     ---   g_pos_offset_pmsm_uw
      E002C4H     PUBLIC    VAR       ---     ---   g_posx_uw
      E002C8H     PUBLIC    VAR       ---     ---   g_stall_speed
      E002CAH     PUBLIC    VAR       ---     ---   g_duty_uw
      E002CCH     PUBLIC    VAR       ---     ---   g_mot_speed_sw
      E002CEH     PUBLIC    VAR       ---     ---   g_timeout
      E002D0H     PUBLIC    VAR       ---     ---   g_slot_bits0
      E002D2H     PUBLIC    VAR       ---     ---   g_pos_offset_bldc_uw
      E002D4H     PUBLIC    VAR       ---     ---   g_step_mode_ub
      E002D8H     PUBLIC    VAR       ---     ---   g_duty_max
      E002DAH     PUBLIC    VAR       ---     ---   g_slot_idx
      E002DCH     PUBLIC    VAR       ---     ---   g_time_run
      E002DEH     PUBLIC    VAR       ---     ---   g_slot_bits
      E002E0H     PUBLIC    VAR       ---     ---   g_turns_cmd
L166 LINKER/LOCATER V5.29.2.0                                                         12/14/2020  10:56:44  PAGE 84


      E002E2H     PUBLIC    VAR       ---     ---   g_pos
      E002E6H     PUBLIC    VAR       ---     ---   g_time_inh
      E002E8H     PUBLIC    VAR       ---     ---   g_timer_calc_speed_ub
      E002EAH     PUBLIC    VAR       ---     ---   g_turns
      E002ECH     PUBLIC    VAR       ---     ---   g_motor_type_ub
      E002EDH     PUBLIC    VAR       ---     ---   g_timer_250us
      E002EEH     PUBLIC    VAR       ---     ---   g_dir_ub

      C0344EH     BLOCK     LVL=0     0258H   ---   do_motor_bldc_debug
      000008H     SYMBOL    REG       ---     ---   buf
      C03458H     BLOCK     LVL=1     0242H   ---   
      000000H     SYMBOL    AUTO      ---     ---   l_buf
      00000EH     SYMBOL    REG       ---     ---   pt
      00000DH     SYMBOL    REG       ---     ---   l_duty_uw
      ---         BLOCKEND  LVL=1     ---     ---   
      C0344EH     LINE      ---       ---     ---   #65
      C03458H     LINE      ---       ---     ---   #66
      C03458H     LINE      ---       ---     ---   #72
      C0345CH     LINE      ---       ---     ---   #75
      C03466H     LINE      ---       ---     ---   #76
      C0346EH     LINE      ---       ---     ---   #77
      C0347CH     LINE      ---       ---     ---   #78
      C03486H     LINE      ---       ---     ---   #79
      C0348CH     LINE      ---       ---     ---   #80
      C03498H     LINE      ---       ---     ---   #81
      C034A4H     LINE      ---       ---     ---   #82
      C034ACH     LINE      ---       ---     ---   #83
      C034BAH     LINE      ---       ---     ---   #84
      C034C6H     LINE      ---       ---     ---   #85
      C034CEH     LINE      ---       ---     ---   #86
      C034DCH     LINE      ---       ---     ---   #88
      C034EAH     LINE      ---       ---     ---   #90
      C034F8H     LINE      ---       ---     ---   #91
      C034F8H     LINE      ---       ---     ---   #93
      C03542H     LINE      ---       ---     ---   #95
      C03542H     LINE      ---       ---     ---   #96
      C0354AH     LINE      ---       ---     ---   #97
      C0354EH     LINE      ---       ---     ---   #98
      C03552H     LINE      ---       ---     ---   #100
      C03552H     LINE      ---       ---     ---   #101
      C03556H     LINE      ---       ---     ---   #102
      C0355AH     LINE      ---       ---     ---   #104
      C0355AH     LINE      ---       ---     ---   #105
      C0356AH     LINE      ---       ---     ---   #106
      C0356EH     LINE      ---       ---     ---   #108
      C0356EH     LINE      ---       ---     ---   #109
      C03574H     LINE      ---       ---     ---   #110
      C03586H     LINE      ---       ---     ---   #111
      C0358AH     LINE      ---       ---     ---   #112
      C03594H     LINE      ---       ---     ---   #113
      C03598H     LINE      ---       ---     ---   #114
      C0359AH     LINE      ---       ---     ---   #116
      C0359AH     LINE      ---       ---     ---   #117
      C0359EH     LINE      ---       ---     ---   #118
      C035A2H     LINE      ---       ---     ---   #119
      C035B4H     LINE      ---       ---     ---   #121
      C035BCH     LINE      ---       ---     ---   #122
L166 LINKER/LOCATER V5.29.2.0                                                         12/14/2020  10:56:44  PAGE 85


      C035C4H     LINE      ---       ---     ---   #123
      C035CCH     LINE      ---       ---     ---   #124
      C035CEH     LINE      ---       ---     ---   #126
      C035CEH     LINE      ---       ---     ---   #127
      C035D2H     LINE      ---       ---     ---   #128
      C035D6H     LINE      ---       ---     ---   #129
      C035E8H     LINE      ---       ---     ---   #130
      C035ECH     LINE      ---       ---     ---   #131
      C035EEH     LINE      ---       ---     ---   #133
      C035EEH     LINE      ---       ---     ---   #134
      C035F4H     LINE      ---       ---     ---   #135
      C03606H     LINE      ---       ---     ---   #136
      C0360EH     LINE      ---       ---     ---   #137
      C03612H     LINE      ---       ---     ---   #139
      C03616H     LINE      ---       ---     ---   #140
      C03620H     LINE      ---       ---     ---   #141
      C03624H     LINE      ---       ---     ---   #142
      C03626H     LINE      ---       ---     ---   #144
      C03626H     LINE      ---       ---     ---   #145
      C03630H     LINE      ---       ---     ---   #146
      C03634H     LINE      ---       ---     ---   #147
      C0363AH     LINE      ---       ---     ---   #149
      C0363CH     LINE      ---       ---     ---   #151
      C0363CH     LINE      ---       ---     ---   #152
      C03642H     LINE      ---       ---     ---   #153
      C03646H     LINE      ---       ---     ---   #154
      C0364AH     LINE      ---       ---     ---   #156
      C03652H     LINE      ---       ---     ---   #157
      C0365AH     LINE      ---       ---     ---   #158
      C03662H     LINE      ---       ---     ---   #159
      C0366AH     LINE      ---       ---     ---   #160
      C03672H     LINE      ---       ---     ---   #161
      C0367AH     LINE      ---       ---     ---   #163
      C0367CH     LINE      ---       ---     ---   #165
      C0367CH     LINE      ---       ---     ---   #166
      C03684H     LINE      ---       ---     ---   #167
      C03684H     LINE      ---       ---     ---   #169
      C03684H     LINE      ---       ---     ---   #170
      C03684H     LINE      ---       ---     ---   #171
      C03684H     LINE      ---       ---     ---   #175
      C0368AH     LINE      ---       ---     ---   #177
      C03696H     LINE      ---       ---     ---   #178
      C0369AH     LINE      ---       ---     ---   #179
      C0369AH     LINE      ---       ---     ---   #181
      ---         BLOCKEND  LVL=0     ---     ---   

      C036A6H     BLOCK     LVL=0     0250H   ---   do_motor_bldc_ctrl
      C036AAH     BLOCK     LVL=1     0246H   ---   
      000006H     SYMBOL    REG       ---     ---   tmpu16
      000000H     SYMBOL    AUTO      ---     ---   SLOT_IDX_F
      000006H     SYMBOL    AUTO      ---     ---   SLOT_IDX_B
      C038F0H     SYMBOL    LABEL     ---     ---   func_exit
      ---         BLOCKEND  LVL=1     ---     ---   
      C036A6H     LINE      ---       ---     ---   #186
      C036AAH     LINE      ---       ---     ---   #187
      C036AAH     LINE      ---       ---     ---   #190
      C036AAH     LINE      ---       ---     ---   #191
L166 LINKER/LOCATER V5.29.2.0                                                         12/14/2020  10:56:44  PAGE 86


      C036AAH     LINE      ---       ---     ---   #192
      C036AAH     LINE      ---       ---     ---   #193
      C036AAH     LINE      ---       ---     ---   #198
      C036BAH     LINE      ---       ---     ---   #200
      C036CCH     LINE      ---       ---     ---   #203
      C036D6H     LINE      ---       ---     ---   #204
      C036DAH     LINE      ---       ---     ---   #213
      C036DAH     LINE      ---       ---     ---   #227
      C036DAH     LINE      ---       ---     ---   #230
      C036E0H     LINE      ---       ---     ---   #232
      C036E8H     LINE      ---       ---     ---   #233
      C036ECH     LINE      ---       ---     ---   #235
      C036F0H     LINE      ---       ---     ---   #236
      C036F0H     LINE      ---       ---     ---   #239
      C036F4H     LINE      ---       ---     ---   #240
      C036F8H     LINE      ---       ---     ---   #241
      C036FCH     LINE      ---       ---     ---   #243
      C03710H     LINE      ---       ---     ---   #244
      C03714H     LINE      ---       ---     ---   #245
      C0372CH     LINE      ---       ---     ---   #247
      C03732H     LINE      ---       ---     ---   #248
      C03742H     LINE      ---       ---     ---   #250
      C03752H     LINE      ---       ---     ---   #252
      C03752H     LINE      ---       ---     ---   #255
      C0376EH     LINE      ---       ---     ---   #257
      C0376EH     LINE      ---       ---     ---   #258
      C03776H     LINE      ---       ---     ---   #259
      C0377EH     LINE      ---       ---     ---   #260
      C03788H     LINE      ---       ---     ---   #261
      C03790H     LINE      ---       ---     ---   #262
      C03798H     LINE      ---       ---     ---   #264
      C03798H     LINE      ---       ---     ---   #265
      C03798H     LINE      ---       ---     ---   #267
      C0379EH     LINE      ---       ---     ---   #268
      C037A0H     LINE      ---       ---     ---   #270
      C037A0H     LINE      ---       ---     ---   #271
      C037A8H     LINE      ---       ---     ---   #272
      C037B0H     LINE      ---       ---     ---   #273
      C037BAH     LINE      ---       ---     ---   #274
      C037C2H     LINE      ---       ---     ---   #275
      C037CAH     LINE      ---       ---     ---   #277
      C037CAH     LINE      ---       ---     ---   #278
      C037CAH     LINE      ---       ---     ---   #280
      C037D0H     LINE      ---       ---     ---   #281
      C037D2H     LINE      ---       ---     ---   #283
      C037D2H     LINE      ---       ---     ---   #284
      C037DAH     LINE      ---       ---     ---   #285
      C037E2H     LINE      ---       ---     ---   #286
      C037ECH     LINE      ---       ---     ---   #287
      C037F4H     LINE      ---       ---     ---   #288
      C037FCH     LINE      ---       ---     ---   #290
      C037FCH     LINE      ---       ---     ---   #291
      C037FCH     LINE      ---       ---     ---   #293
      C03802H     LINE      ---       ---     ---   #294
      C03804H     LINE      ---       ---     ---   #296
      C03804H     LINE      ---       ---     ---   #297
      C0380CH     LINE      ---       ---     ---   #298
L166 LINKER/LOCATER V5.29.2.0                                                         12/14/2020  10:56:44  PAGE 87


      C03814H     LINE      ---       ---     ---   #299
      C0381EH     LINE      ---       ---     ---   #300
      C03826H     LINE      ---       ---     ---   #301
      C0382EH     LINE      ---       ---     ---   #303
      C0382EH     LINE      ---       ---     ---   #304
      C0382EH     LINE      ---       ---     ---   #306
      C03834H     LINE      ---       ---     ---   #307
      C03836H     LINE      ---       ---     ---   #309
      C03836H     LINE      ---       ---     ---   #310
      C0383EH     LINE      ---       ---     ---   #311
      C03846H     LINE      ---       ---     ---   #312
      C03850H     LINE      ---       ---     ---   #313
      C03858H     LINE      ---       ---     ---   #314
      C03860H     LINE      ---       ---     ---   #316
      C03860H     LINE      ---       ---     ---   #317
      C03860H     LINE      ---       ---     ---   #319
      C03868H     LINE      ---       ---     ---   #320
      C0386AH     LINE      ---       ---     ---   #322
      C0386AH     LINE      ---       ---     ---   #323
      C03872H     LINE      ---       ---     ---   #324
      C0387AH     LINE      ---       ---     ---   #325
      C03884H     LINE      ---       ---     ---   #326
      C0388CH     LINE      ---       ---     ---   #327
      C03894H     LINE      ---       ---     ---   #329
      C03894H     LINE      ---       ---     ---   #330
      C03894H     LINE      ---       ---     ---   #332
      C0389CH     LINE      ---       ---     ---   #333
      C0389CH     LINE      ---       ---     ---   #335
      C0389CH     LINE      ---       ---     ---   #336
      C0389CH     LINE      ---       ---     ---   #337
      C0389CH     LINE      ---       ---     ---   #341
      C038ACH     LINE      ---       ---     ---   #343
      C038B0H     LINE      ---       ---     ---   #345
      C038B6H     LINE      ---       ---     ---   #347
      C038BAH     LINE      ---       ---     ---   #348
      C038C0H     LINE      ---       ---     ---   #350
      C038C8H     LINE      ---       ---     ---   #353
      C038CCH     LINE      ---       ---     ---   #354
      C038D4H     LINE      ---       ---     ---   #355
      C038DCH     LINE      ---       ---     ---   #356
      C038E4H     LINE      ---       ---     ---   #358
      C038E8H     LINE      ---       ---     ---   #360
      C038E8H     LINE      ---       ---     ---   #362
      C038E8H     LINE      ---       ---     ---   #363
      C038E8H     LINE      ---       ---     ---   #364
      C038F0H     LINE      ---       ---     ---   #366
      C038F0H     LINE      ---       ---     ---   #367
      C038F0H     LINE      ---       ---     ---   #368
      ---         BLOCKEND  LVL=0     ---     ---   

      C038F6H     BLOCK     LVL=0     008AH   ---   calc_mot_total_angle
      C038F6H     BLOCK     LVL=1     0088H   ---   
      000008H     SYMBOL    REG       ---     ---   tmps32_a
      00000AH     SYMBOL    REG       ---     ---   tmps32_b
      ---         BLOCKEND  LVL=1     ---     ---   
      C038F6H     LINE      ---       ---     ---   #372
      C038F6H     LINE      ---       ---     ---   #373
L166 LINKER/LOCATER V5.29.2.0                                                         12/14/2020  10:56:44  PAGE 88


      C038F6H     LINE      ---       ---     ---   #378
      C03900H     LINE      ---       ---     ---   #386
      C0390CH     LINE      ---       ---     ---   #388
      C03918H     LINE      ---       ---     ---   #389
      C0391CH     LINE      ---       ---     ---   #390
      C0392CH     LINE      ---       ---     ---   #391
      C0392EH     LINE      ---       ---     ---   #394
      C03934H     LINE      ---       ---     ---   #395
      C03938H     LINE      ---       ---     ---   #396
      C0393CH     LINE      ---       ---     ---   #397
      C0393CH     LINE      ---       ---     ---   #398
      C0393EH     LINE      ---       ---     ---   #401
      C0394AH     LINE      ---       ---     ---   #403
      C03954H     LINE      ---       ---     ---   #404
      C0395AH     LINE      ---       ---     ---   #405
      C0395EH     LINE      ---       ---     ---   #406
      C03960H     LINE      ---       ---     ---   #409
      C03966H     LINE      ---       ---     ---   #410
      C0396AH     LINE      ---       ---     ---   #411
      C0396EH     LINE      ---       ---     ---   #412
      C0396EH     LINE      ---       ---     ---   #413
      C0396EH     LINE      ---       ---     ---   #415
      C03976H     LINE      ---       ---     ---   #416
      C0397EH     LINE      ---       ---     ---   #418
      ---         BLOCKEND  LVL=0     ---     ---   

      C03980H     BLOCK     LVL=0     007AH   ---   calc_mot_speed
      C03980H     BLOCK     LVL=1     0078H   ---   
      E002D6H     SYMBOL    VAR       ---     ---   tmx_calc_speed_cnt
      000008H     SYMBOL    REG       ---     ---   tmps32
      ---         BLOCKEND  LVL=1     ---     ---   
      C03980H     LINE      ---       ---     ---   #422
      C03980H     LINE      ---       ---     ---   #423
      C03980H     LINE      ---       ---     ---   #429
      C03984H     LINE      ---       ---     ---   #430
      C0398EH     LINE      ---       ---     ---   #432
      C03992H     LINE      ---       ---     ---   #433
      C03998H     LINE      ---       ---     ---   #434
      C03998H     LINE      ---       ---     ---   #437
      C03998H     LINE      ---       ---     ---   #438
      C03998H     LINE      ---       ---     ---   #442
      C03998H     LINE      ---       ---     ---   #444
      C0399CH     LINE      ---       ---     ---   #446
      C039B0H     LINE      ---       ---     ---   #447
      C039B8H     LINE      ---       ---     ---   #449
      C039D6H     LINE      ---       ---     ---   #451
      C039DCH     LINE      ---       ---     ---   #452
      C039E6H     LINE      ---       ---     ---   #453
      C039F0H     LINE      ---       ---     ---   #454
      C039F8H     LINE      ---       ---     ---   #455
      C039F8H     LINE      ---       ---     ---   #456
      ---         BLOCKEND  LVL=0     ---     ---   

      C039FAH     BLOCK     LVL=0     002CH   ---   isr_100us_timer_hook_user
      C039FAH     LINE      ---       ---     ---   #461
      C039FAH     LINE      ---       ---     ---   #463
      C03A04H     LINE      ---       ---     ---   #469
L166 LINKER/LOCATER V5.29.2.0                                                         12/14/2020  10:56:44  PAGE 89


      C03A0CH     LINE      ---       ---     ---   #470
      C03A10H     LINE      ---       ---     ---   #472
      C03A18H     LINE      ---       ---     ---   #473
      C03A1CH     LINE      ---       ---     ---   #474
      C03A20H     LINE      ---       ---     ---   #475
      C03A24H     LINE      ---       ---     ---   #476
      ---         BLOCKEND  LVL=0     ---     ---   
      C06914H     PUBLIC    LABEL     ---     ---   calc_motor_pos
      C06996H     PUBLIC    LABEL     ---     ---   vqs_cmd_filter
      C06832H     PUBLIC    LABEL     ---     ---   do_motor_pmsm_ctrl
      E00386H     PUBLIC    VAR       ---     ---   g_angle_eiq
      E00388H     PUBLIC    VAR       ---     ---   Vqs_cmd
      E0038AH     PUBLIC    VAR       ---     ---   g_angle_sensor
      E0038CH     PUBLIC    VAR       ---     ---   g_angle_offset
      E0038EH     PUBLIC    VAR       ---     ---   g_sum_vqs_sl
      00A93AH     PUBLIC    VAR       ---     ---   V
      00A97AH     PUBLIC    VAR       ---     ---   I

      C06832H     BLOCK     LVL=0     00E2H   ---   do_motor_pmsm_ctrl
      C06832H     BLOCK     LVL=1     00E0H   ---   
      000004H     SYMBOL    REG       ---     ---   l_vqs
      ---         BLOCKEND  LVL=1     ---     ---   
      C06832H     LINE      ---       ---     ---   #39
      C06832H     LINE      ---       ---     ---   #40
      C06832H     LINE      ---       ---     ---   #43
      C06838H     LINE      ---       ---     ---   #45
      C0683EH     LINE      ---       ---     ---   #46
      C06842H     LINE      ---       ---     ---   #48
      C06844H     LINE      ---       ---     ---   #49
      C06844H     LINE      ---       ---     ---   #52
      C06848H     LINE      ---       ---     ---   #57
      C06854H     LINE      ---       ---     ---   #59
      C06860H     LINE      ---       ---     ---   #60
      C0686CH     LINE      ---       ---     ---   #61
      C06880H     LINE      ---       ---     ---   #62
      C06894H     LINE      ---       ---     ---   #64
      C0689EH     LINE      ---       ---     ---   #65
      C068A6H     LINE      ---       ---     ---   #68
      C068B2H     LINE      ---       ---     ---   #69
      C068BEH     LINE      ---       ---     ---   #72
      C068C4H     LINE      ---       ---     ---   #73
      C068CCH     LINE      ---       ---     ---   #76
      C068D4H     LINE      ---       ---     ---   #78
      C068EEH     LINE      ---       ---     ---   #81
      C068FAH     LINE      ---       ---     ---   #83
      C06906H     LINE      ---       ---     ---   #85
      C06912H     LINE      ---       ---     ---   #86
      ---         BLOCKEND  LVL=0     ---     ---   

      C06914H     BLOCK     LVL=0     0082H   ---   calc_motor_pos
      C06914H     BLOCK     LVL=1     0080H   ---   
      000008H     SYMBOL    REG       ---     ---   tmpu32
      000006H     SYMBOL    REG       ---     ---   l_pole_pair_idx
      000005H     SYMBOL    REG       ---     ---   tmps16
      ---         BLOCKEND  LVL=1     ---     ---   
      C06914H     LINE      ---       ---     ---   #91
      C06914H     LINE      ---       ---     ---   #92
L166 LINKER/LOCATER V5.29.2.0                                                         12/14/2020  10:56:44  PAGE 90


      C06914H     LINE      ---       ---     ---   #98
      C0691AH     LINE      ---       ---     ---   #99
      C0692CH     LINE      ---       ---     ---   #100
      C06936H     LINE      ---       ---     ---   #101
      C0693CH     LINE      ---       ---     ---   #104
      C06944H     LINE      ---       ---     ---   #108
      C06958H     LINE      ---       ---     ---   #110
      C0696AH     LINE      ---       ---     ---   #112
      C0696EH     LINE      ---       ---     ---   #115
      C06974H     LINE      ---       ---     ---   #116
      C06980H     LINE      ---       ---     ---   #117
      C06984H     LINE      ---       ---     ---   #118
      C06990H     LINE      ---       ---     ---   #120
      C06994H     LINE      ---       ---     ---   #125
      ---         BLOCKEND  LVL=0     ---     ---   

      C06996H     BLOCK     LVL=0     0004H   ---   vqs_cmd_filter
      000008H     SYMBOL    REG       ---     ---   vqs
      C06996H     BLOCK     LVL=1     0002H   ---   
      000008H     SYMBOL    REG       ---     ---   l_vqs
      ---         BLOCKEND  LVL=1     ---     ---   
      C06996H     LINE      ---       ---     ---   #131
      C06996H     LINE      ---       ---     ---   #132
      C06996H     LINE      ---       ---     ---   #135
      C06996H     LINE      ---       ---     ---   #150
      C06998H     LINE      ---       ---     ---   #151
      ---         BLOCKEND  LVL=0     ---     ---   
      C02DCEH     PUBLIC    LABEL     ---     ---   Clark
      C02EEAH     PUBLIC    LABEL     ---     ---   IPark
      C02FC2H     PUBLIC    LABEL     ---     ---   motor_sector_cal
      C030E8H     PUBLIC    LABEL     ---     ---   motor_sector_switch_cal
      C02DD0H     PUBLIC    LABEL     ---     ---   Park
      C00060H     SYMBOL    VAR       ---     ---   ?tpl?0001
      E00392H     PUBLIC    VAR       ---     ---   g_duty2
      E00394H     PUBLIC    VAR       ---     ---   g_duty1
      E00396H     PUBLIC    VAR       ---     ---   g_duty0
      E00398H     PUBLIC    VAR       ---     ---   g_duty_C
      E0039AH     PUBLIC    VAR       ---     ---   g_duty_B
      E0039CH     PUBLIC    VAR       ---     ---   g_duty_A

      C02DCEH     BLOCK     LVL=0     0002H   ---   Clark
      000008H     SYMBOL    REG       ---     ---   I
      C02DCEH     LINE      ---       ---     ---   #35
      C02DCEH     LINE      ---       ---     ---   #41
      ---         BLOCKEND  LVL=0     ---     ---   

      C02DD0H     BLOCK     LVL=0     011AH   ---   Park
      000008H     SYMBOL    REG       ---     ---   I
      C02DD0H     LINE      ---       ---     ---   #46
      C02DD0H     LINE      ---       ---     ---   #48
      C02DDCH     LINE      ---       ---     ---   #50
      C02DF6H     LINE      ---       ---     ---   #51
      C02E14H     LINE      ---       ---     ---   #52
      C02E16H     LINE      ---       ---     ---   #53
      C02E1CH     LINE      ---       ---     ---   #55
      C02E3AH     LINE      ---       ---     ---   #56
      C02E5CH     LINE      ---       ---     ---   #57
L166 LINKER/LOCATER V5.29.2.0                                                         12/14/2020  10:56:44  PAGE 91


      C02E5EH     LINE      ---       ---     ---   #58
      C02E64H     LINE      ---       ---     ---   #60
      C02E84H     LINE      ---       ---     ---   #61
      C02EA8H     LINE      ---       ---     ---   #62
      C02EAAH     LINE      ---       ---     ---   #65
      C02ECCH     LINE      ---       ---     ---   #66
      C02EE8H     LINE      ---       ---     ---   #67
      C02EE8H     LINE      ---       ---     ---   #68
      ---         BLOCKEND  LVL=0     ---     ---   

      C02EEAH     BLOCK     LVL=0     00D8H   ---   IPark
      00000CH     SYMBOL    REG       ---     ---   v
      C02EEAH     LINE      ---       ---     ---   #73
      C02EF0H     LINE      ---       ---     ---   #75
      C02F36H     LINE      ---       ---     ---   #76
      C02F56H     LINE      ---       ---     ---   #77
      C02F9CH     LINE      ---       ---     ---   #78
      C02FBEH     LINE      ---       ---     ---   #79
      ---         BLOCKEND  LVL=0     ---     ---   

      C02FC2H     BLOCK     LVL=0     0126H   ---   motor_sector_cal
      00000CH     SYMBOL    REG       ---     ---   v
      C02FCCH     BLOCK     LVL=1     0114H   ---   
      000000H     SYMBOL    AUTO      ---     ---   l_sector_idx
      ---         BLOCKEND  LVL=1     ---     ---   
      C02FC2H     LINE      ---       ---     ---   #84
      C02FCCH     LINE      ---       ---     ---   #85
      C02FCCH     LINE      ---       ---     ---   #86
      C02FDCH     LINE      ---       ---     ---   #89
      C02FE4H     LINE      ---       ---     ---   #90
      C02FF6H     LINE      ---       ---     ---   #91
      C0302EH     LINE      ---       ---     ---   #92
      C0306CH     LINE      ---       ---     ---   #94
      C0307AH     LINE      ---       ---     ---   #95
      C03088H     LINE      ---       ---     ---   #96
      C03098H     LINE      ---       ---     ---   #97
      C030A6H     LINE      ---       ---     ---   #98
      C030B6H     LINE      ---       ---     ---   #99
      C030C4H     LINE      ---       ---     ---   #101
      C030D2H     LINE      ---       ---     ---   #102
      C030E0H     LINE      ---       ---     ---   #103
      ---         BLOCKEND  LVL=0     ---     ---   

      C030E8H     BLOCK     LVL=0     0366H   ---   motor_sector_switch_cal
      00000AH     SYMBOL    REG       ---     ---   v
      C030F2H     BLOCK     LVL=1     0354H   ---   
      00000EH     SYMBOL    REG       ---     ---   T1
      00000DH     SYMBOL    REG       ---     ---   T2
      000002H     SYMBOL    REG       ---     ---   l_tmps32_a
      000008H     SYMBOL    REG       ---     ---   l_tmps32_b
      000000H     SYMBOL    AUTO      ---     ---   l_tmps32
      ---         BLOCKEND  LVL=1     ---     ---   
      C030E8H     LINE      ---       ---     ---   #109
      C030F2H     LINE      ---       ---     ---   #110
      C030F2H     LINE      ---       ---     ---   #118
      C030FCH     LINE      ---       ---     ---   #119
      C03130H     LINE      ---       ---     ---   #123
L166 LINKER/LOCATER V5.29.2.0                                                         12/14/2020  10:56:44  PAGE 92


      C03160H     LINE      ---       ---     ---   #124
      C03178H     LINE      ---       ---     ---   #125
      C03198H     LINE      ---       ---     ---   #126
      C031B4H     LINE      ---       ---     ---   #129
      C031CCH     LINE      ---       ---     ---   #131
      C031CCH     LINE      ---       ---     ---   #132
      C031D6H     LINE      ---       ---     ---   #133
      C031DCH     LINE      ---       ---     ---   #134
      C031DEH     LINE      ---       ---     ---   #135
      C031DEH     LINE      ---       ---     ---   #136
      C031E4H     LINE      ---       ---     ---   #137
      C031E8H     LINE      ---       ---     ---   #138
      C031EAH     LINE      ---       ---     ---   #139
      C031EAH     LINE      ---       ---     ---   #140
      C031F0H     LINE      ---       ---     ---   #141
      C031F8H     LINE      ---       ---     ---   #142
      C031FAH     LINE      ---       ---     ---   #143
      C031FAH     LINE      ---       ---     ---   #144
      C03204H     LINE      ---       ---     ---   #145
      C0320AH     LINE      ---       ---     ---   #146
      C0320CH     LINE      ---       ---     ---   #147
      C0320CH     LINE      ---       ---     ---   #148
      C03216H     LINE      ---       ---     ---   #149
      C03220H     LINE      ---       ---     ---   #150
      C03222H     LINE      ---       ---     ---   #151
      C03222H     LINE      ---       ---     ---   #152
      C03228H     LINE      ---       ---     ---   #153
      C03230H     LINE      ---       ---     ---   #154
      C03230H     LINE      ---       ---     ---   #155
      C03230H     LINE      ---       ---     ---   #157
      C03230H     LINE      ---       ---     ---   #160
      C03230H     LINE      ---       ---     ---   #163
      C0323AH     LINE      ---       ---     ---   #165
      C03262H     LINE      ---       ---     ---   #166
      C03268H     LINE      ---       ---     ---   #167
      C03296H     LINE      ---       ---     ---   #168
      C0329CH     LINE      ---       ---     ---   #169
      C0329EH     LINE      ---       ---     ---   #172
      C032A4H     LINE      ---       ---     ---   #173
      C032A8H     LINE      ---       ---     ---   #174
      C032A8H     LINE      ---       ---     ---   #177
      C032C4H     LINE      ---       ---     ---   #178
      C032D8H     LINE      ---       ---     ---   #179
      C032ECH     LINE      ---       ---     ---   #183
      C0331CH     LINE      ---       ---     ---   #184
      C03348H     LINE      ---       ---     ---   #185
      C03374H     LINE      ---       ---     ---   #187
      C03374H     LINE      ---       ---     ---   #188
      C03374H     LINE      ---       ---     ---   #192
      C0338EH     LINE      ---       ---     ---   #194
      C0338EH     LINE      ---       ---     ---   #195
      C03396H     LINE      ---       ---     ---   #196
      C0339EH     LINE      ---       ---     ---   #197
      C033A6H     LINE      ---       ---     ---   #198
      C033A8H     LINE      ---       ---     ---   #199
      C033A8H     LINE      ---       ---     ---   #200
      C033B0H     LINE      ---       ---     ---   #201
L166 LINKER/LOCATER V5.29.2.0                                                         12/14/2020  10:56:44  PAGE 93


      C033B8H     LINE      ---       ---     ---   #202
      C033C0H     LINE      ---       ---     ---   #203
      C033C2H     LINE      ---       ---     ---   #204
      C033C2H     LINE      ---       ---     ---   #205
      C033CAH     LINE      ---       ---     ---   #206
      C033D2H     LINE      ---       ---     ---   #207
      C033DAH     LINE      ---       ---     ---   #208
      C033DCH     LINE      ---       ---     ---   #209
      C033DCH     LINE      ---       ---     ---   #210
      C033E4H     LINE      ---       ---     ---   #211
      C033ECH     LINE      ---       ---     ---   #212
      C033F4H     LINE      ---       ---     ---   #213
      C033F6H     LINE      ---       ---     ---   #214
      C033F6H     LINE      ---       ---     ---   #215
      C033FEH     LINE      ---       ---     ---   #216
      C03406H     LINE      ---       ---     ---   #217
      C0340EH     LINE      ---       ---     ---   #218
      C03410H     LINE      ---       ---     ---   #219
      C03410H     LINE      ---       ---     ---   #220
      C03418H     LINE      ---       ---     ---   #221
      C03420H     LINE      ---       ---     ---   #222
      C03428H     LINE      ---       ---     ---   #223
      C03428H     LINE      ---       ---     ---   #225
      C03428H     LINE      ---       ---     ---   #226
      C03428H     LINE      ---       ---     ---   #227
      C03428H     LINE      ---       ---     ---   #229
      C03432H     LINE      ---       ---     ---   #230
      C0343CH     LINE      ---       ---     ---   #231
      C03446H     LINE      ---       ---     ---   #233
      ---         BLOCKEND  LVL=0     ---     ---   
      C05CCEH     PUBLIC    LABEL     ---     ---   filter_s_sense
      C05C80H     PUBLIC    LABEL     ---     ---   filter_motor_m_angle
      C05D50H     PUBLIC    LABEL     ---     ---   filter_currentQ
      C05E20H     PUBLIC    LABEL     ---     ---   filter_currentM
      C05D1CH     PUBLIC    LABEL     ---     ---   filter_currentD
      C05DECH     PUBLIC    LABEL     ---     ---   filter_currentC
      C05DB8H     PUBLIC    LABEL     ---     ---   filter_currentB
      C05D84H     PUBLIC    LABEL     ---     ---   filter_currentA
      E002F0H     PUBLIC    VAR       ---     ---   s_sense
      E002F4H     PUBLIC    VAR       ---     ---   motor_m_angle
      E002F8H     PUBLIC    VAR       ---     ---   currentQ
      E002FAH     PUBLIC    VAR       ---     ---   currentD
      E002FCH     PUBLIC    VAR       ---     ---   phase_currentM
      E002FEH     PUBLIC    VAR       ---     ---   phase_currentC
      E00300H     PUBLIC    VAR       ---     ---   phase_currentB
      E00302H     PUBLIC    VAR       ---     ---   phase_currentA
      E00304H     PUBLIC    VAR       ---     ---   sum_s_sense
      E00308H     PUBLIC    VAR       ---     ---   sum_motor_m_angle
      E0030CH     PUBLIC    VAR       ---     ---   sum_currentQ
      E0030EH     PUBLIC    VAR       ---     ---   sum_currentM
      E00310H     PUBLIC    VAR       ---     ---   sum_currentD
      E00312H     PUBLIC    VAR       ---     ---   sum_currentC
      E00314H     PUBLIC    VAR       ---     ---   sum_currentB
      E00316H     PUBLIC    VAR       ---     ---   sum_currentA

      C05C80H     BLOCK     LVL=0     004EH   ---   filter_motor_m_angle
      000008H     SYMBOL    REG       ---     ---   motor_m_angle_get
L166 LINKER/LOCATER V5.29.2.0                                                         12/14/2020  10:56:44  PAGE 94


      C05C80H     BLOCK     LVL=1     004CH   ---   
      000008H     SYMBOL    REG       ---     ---   sum_temp
      ---         BLOCKEND  LVL=1     ---     ---   
      C05C80H     LINE      ---       ---     ---   #34
      C05C80H     LINE      ---       ---     ---   #35
      C05C80H     LINE      ---       ---     ---   #38
      C05C88H     LINE      ---       ---     ---   #39
      C05C98H     LINE      ---       ---     ---   #40
      C05CA0H     LINE      ---       ---     ---   #41
      C05CBCH     LINE      ---       ---     ---   #42
      C05CC4H     LINE      ---       ---     ---   #44
      C05CCCH     LINE      ---       ---     ---   #45
      ---         BLOCKEND  LVL=0     ---     ---   

      C05CCEH     BLOCK     LVL=0     004EH   ---   filter_s_sense
      000008H     SYMBOL    REG       ---     ---   s_sense_get
      C05CCEH     BLOCK     LVL=1     004CH   ---   
      000008H     SYMBOL    REG       ---     ---   sum_temp
      ---         BLOCKEND  LVL=1     ---     ---   
      C05CCEH     LINE      ---       ---     ---   #50
      C05CCEH     LINE      ---       ---     ---   #51
      C05CCEH     LINE      ---       ---     ---   #54
      C05CD6H     LINE      ---       ---     ---   #55
      C05CE6H     LINE      ---       ---     ---   #56
      C05CEEH     LINE      ---       ---     ---   #57
      C05D0AH     LINE      ---       ---     ---   #58
      C05D12H     LINE      ---       ---     ---   #60
      C05D1AH     LINE      ---       ---     ---   #61
      ---         BLOCKEND  LVL=0     ---     ---   

      C05D1CH     BLOCK     LVL=0     0034H   ---   filter_currentD
      000008H     SYMBOL    REG       ---     ---   currentD_calc
      C05D1CH     BLOCK     LVL=1     0032H   ---   
      000008H     SYMBOL    REG       ---     ---   sum_temp
      ---         BLOCKEND  LVL=1     ---     ---   
      C05D1CH     LINE      ---       ---     ---   #66
      C05D1CH     LINE      ---       ---     ---   #67
      C05D1CH     LINE      ---       ---     ---   #70
      C05D20H     LINE      ---       ---     ---   #71
      C05D28H     LINE      ---       ---     ---   #72
      C05D2EH     LINE      ---       ---     ---   #73
      C05D48H     LINE      ---       ---     ---   #74
      C05D4EH     LINE      ---       ---     ---   #76
      C05D4EH     LINE      ---       ---     ---   #77
      ---         BLOCKEND  LVL=0     ---     ---   

      C05D50H     BLOCK     LVL=0     0034H   ---   filter_currentQ
      000008H     SYMBOL    REG       ---     ---   currentQ_calc
      C05D50H     BLOCK     LVL=1     0032H   ---   
      000008H     SYMBOL    REG       ---     ---   sum_temp
      ---         BLOCKEND  LVL=1     ---     ---   
      C05D50H     LINE      ---       ---     ---   #82
      C05D50H     LINE      ---       ---     ---   #83
      C05D50H     LINE      ---       ---     ---   #86
      C05D54H     LINE      ---       ---     ---   #87
      C05D5CH     LINE      ---       ---     ---   #88
      C05D62H     LINE      ---       ---     ---   #89
L166 LINKER/LOCATER V5.29.2.0                                                         12/14/2020  10:56:44  PAGE 95


      C05D7CH     LINE      ---       ---     ---   #90
      C05D82H     LINE      ---       ---     ---   #92
      C05D82H     LINE      ---       ---     ---   #93
      ---         BLOCKEND  LVL=0     ---     ---   

      C05D84H     BLOCK     LVL=0     0034H   ---   filter_currentA
      000008H     SYMBOL    REG       ---     ---   currentA_adc
      C05D84H     BLOCK     LVL=1     0032H   ---   
      000008H     SYMBOL    REG       ---     ---   sum_temp
      ---         BLOCKEND  LVL=1     ---     ---   
      C05D84H     LINE      ---       ---     ---   #98
      C05D84H     LINE      ---       ---     ---   #99
      C05D84H     LINE      ---       ---     ---   #102
      C05D88H     LINE      ---       ---     ---   #103
      C05D90H     LINE      ---       ---     ---   #104
      C05D96H     LINE      ---       ---     ---   #105
      C05DB0H     LINE      ---       ---     ---   #106
      C05DB6H     LINE      ---       ---     ---   #108
      C05DB6H     LINE      ---       ---     ---   #109
      ---         BLOCKEND  LVL=0     ---     ---   

      C05DB8H     BLOCK     LVL=0     0034H   ---   filter_currentB
      000008H     SYMBOL    REG       ---     ---   currentB_adc
      C05DB8H     BLOCK     LVL=1     0032H   ---   
      000008H     SYMBOL    REG       ---     ---   sum_temp
      ---         BLOCKEND  LVL=1     ---     ---   
      C05DB8H     LINE      ---       ---     ---   #114
      C05DB8H     LINE      ---       ---     ---   #115
      C05DB8H     LINE      ---       ---     ---   #118
      C05DBCH     LINE      ---       ---     ---   #119
      C05DC4H     LINE      ---       ---     ---   #120
      C05DCAH     LINE      ---       ---     ---   #121
      C05DE4H     LINE      ---       ---     ---   #122
      C05DEAH     LINE      ---       ---     ---   #124
      C05DEAH     LINE      ---       ---     ---   #125
      ---         BLOCKEND  LVL=0     ---     ---   

      C05DECH     BLOCK     LVL=0     0034H   ---   filter_currentC
      000008H     SYMBOL    REG       ---     ---   currentC_adc
      C05DECH     BLOCK     LVL=1     0032H   ---   
      000008H     SYMBOL    REG       ---     ---   sum_temp
      ---         BLOCKEND  LVL=1     ---     ---   
      C05DECH     LINE      ---       ---     ---   #130
      C05DECH     LINE      ---       ---     ---   #131
      C05DECH     LINE      ---       ---     ---   #134
      C05DF0H     LINE      ---       ---     ---   #135
      C05DF8H     LINE      ---       ---     ---   #136
      C05DFEH     LINE      ---       ---     ---   #137
      C05E18H     LINE      ---       ---     ---   #138
      C05E1EH     LINE      ---       ---     ---   #140
      C05E1EH     LINE      ---       ---     ---   #141
      ---         BLOCKEND  LVL=0     ---     ---   

      C05E20H     BLOCK     LVL=0     0034H   ---   filter_currentM
      000008H     SYMBOL    REG       ---     ---   currentM_adc
      C05E20H     BLOCK     LVL=1     0032H   ---   
      000008H     SYMBOL    REG       ---     ---   sum_temp
L166 LINKER/LOCATER V5.29.2.0                                                         12/14/2020  10:56:44  PAGE 96


      ---         BLOCKEND  LVL=1     ---     ---   
      C05E20H     LINE      ---       ---     ---   #146
      C05E20H     LINE      ---       ---     ---   #147
      C05E20H     LINE      ---       ---     ---   #150
      C05E24H     LINE      ---       ---     ---   #151
      C05E2CH     LINE      ---       ---     ---   #152
      C05E32H     LINE      ---       ---     ---   #153
      C05E4CH     LINE      ---       ---     ---   #154
      C05E52H     LINE      ---       ---     ---   #156
      C05E52H     LINE      ---       ---     ---   #157
      ---         BLOCKEND  LVL=0     ---     ---   
      C001BCH     PUBLIC    VAR       ---     ---   g_sin_value
      C06042H     PUBLIC    LABEL     ---     ---   get_steer_torque0
      C06024H     PUBLIC    LABEL     ---     ---   get_brake_pedal_pos1
      C0601CH     PUBLIC    LABEL     ---     ---   get_brake_pedal_pos0
      C061A6H     PUBLIC    LABEL     ---     ---   get_brk_pedal_volt
      C061D6H     PUBLIC    LABEL     ---     ---   get_temp_sensor_pcb
      C0607EH     PUBLIC    LABEL     ---     ---   set_motor_torque
      C0602CH     PUBLIC    LABEL     ---     ---   get_brake_pedal_pos_can
      C0607AH     PUBLIC    LABEL     ---     ---   set_motor_speed
      C0617CH     PUBLIC    LABEL     ---     ---   get_mc_pressure
      C0619AH     PUBLIC    LABEL     ---     ---   get_brk_pedal_state
      C0614AH     PUBLIC    LABEL     ---     ---   set_motor_offset
      C06142H     PUBLIC    LABEL     ---     ---   save_parameters
      C061DEH     PUBLIC    LABEL     ---     ---   get_temp_sensor_mosfet
      C06074H     PUBLIC    LABEL     ---     ---   get_motor_speed
      C06056H     PUBLIC    LABEL     ---     ---   get_motor_total_angle
      C060AAH     PUBLIC    LABEL     ---     ---   set_motor_ctrl_enable
      C06146H     PUBLIC    LABEL     ---     ---   read_parameters
      C061B0H     PUBLIC    LABEL     ---     ---   get_current
      C0604AH     PUBLIC    LABEL     ---     ---   get_motor_angle_m
      C06082H     PUBLIC    LABEL     ---     ---   set_motor_volt
      C0618CH     PUBLIC    LABEL     ---     ---   get_ign_volt
      C06050H     PUBLIC    LABEL     ---     ---   get_motor_angle_e
      C06184H     PUBLIC    LABEL     ---     ---   get_disp_sensor0
      C06096H     PUBLIC    LABEL     ---     ---   set_motor_dir
      C0603AH     PUBLIC    LABEL     ---     ---   get_mc_pressure1
      C06164H     PUBLIC    LABEL     ---     ---   get_bat_volt
      C06032H     PUBLIC    LABEL     ---     ---   get_mc_pressure0
      C06046H     PUBLIC    LABEL     ---     ---   get_steer_torque1
      E00404H     PUBLIC    VAR       ---     ---   g_brake_pedal_pos_can_uw

      C0601CH     BLOCK     LVL=0     0008H   ---   get_brake_pedal_pos0
      C0601CH     LINE      ---       ---     ---   #27
      C0601CH     LINE      ---       ---     ---   #29
      C06022H     LINE      ---       ---     ---   #30
      ---         BLOCKEND  LVL=0     ---     ---   

      C06024H     BLOCK     LVL=0     0008H   ---   get_brake_pedal_pos1
      C06024H     LINE      ---       ---     ---   #35
      C06024H     LINE      ---       ---     ---   #37
      C0602AH     LINE      ---       ---     ---   #38
      ---         BLOCKEND  LVL=0     ---     ---   

      C0602CH     BLOCK     LVL=0     0006H   ---   get_brake_pedal_pos_can
      C0602CH     LINE      ---       ---     ---   #43
      C0602CH     LINE      ---       ---     ---   #45
L166 LINKER/LOCATER V5.29.2.0                                                         12/14/2020  10:56:44  PAGE 97


      C06030H     LINE      ---       ---     ---   #46
      ---         BLOCKEND  LVL=0     ---     ---   

      C06032H     BLOCK     LVL=0     0008H   ---   get_mc_pressure0
      C06032H     LINE      ---       ---     ---   #51
      C06032H     LINE      ---       ---     ---   #53
      C06038H     LINE      ---       ---     ---   #54
      ---         BLOCKEND  LVL=0     ---     ---   

      C0603AH     BLOCK     LVL=0     0008H   ---   get_mc_pressure1
      C0603AH     LINE      ---       ---     ---   #59
      C0603AH     LINE      ---       ---     ---   #61
      C06040H     LINE      ---       ---     ---   #62
      ---         BLOCKEND  LVL=0     ---     ---   

      C06042H     BLOCK     LVL=0     0004H   ---   get_steer_torque0
      C06042H     LINE      ---       ---     ---   #67
      C06042H     LINE      ---       ---     ---   #69
      C06044H     LINE      ---       ---     ---   #70
      ---         BLOCKEND  LVL=0     ---     ---   

      C06046H     BLOCK     LVL=0     0004H   ---   get_steer_torque1
      C06046H     LINE      ---       ---     ---   #75
      C06046H     LINE      ---       ---     ---   #77
      C06048H     LINE      ---       ---     ---   #78
      ---         BLOCKEND  LVL=0     ---     ---   

      C0604AH     BLOCK     LVL=0     0006H   ---   get_motor_angle_m
      C0604AH     LINE      ---       ---     ---   #83
      C0604AH     LINE      ---       ---     ---   #85
      C0604EH     LINE      ---       ---     ---   #86
      ---         BLOCKEND  LVL=0     ---     ---   

      C06050H     BLOCK     LVL=0     0006H   ---   get_motor_angle_e
      C06050H     LINE      ---       ---     ---   #91
      C06050H     LINE      ---       ---     ---   #93
      C06054H     LINE      ---       ---     ---   #94
      ---         BLOCKEND  LVL=0     ---     ---   

      C06056H     BLOCK     LVL=0     001EH   ---   get_motor_total_angle
      C06056H     LINE      ---       ---     ---   #99
      C06056H     LINE      ---       ---     ---   #101
      C06072H     LINE      ---       ---     ---   #102
      ---         BLOCKEND  LVL=0     ---     ---   

      C06074H     BLOCK     LVL=0     0006H   ---   get_motor_speed
      C06074H     LINE      ---       ---     ---   #107
      C06074H     LINE      ---       ---     ---   #109
      C06078H     LINE      ---       ---     ---   #110
      ---         BLOCKEND  LVL=0     ---     ---   

      C0607AH     BLOCK     LVL=0     0004H   ---   set_motor_speed
      000008H     SYMBOL    REG       ---     ---   speed
      C0607AH     LINE      ---       ---     ---   #115
      C0607AH     LINE      ---       ---     ---   #119
      C0607CH     LINE      ---       ---     ---   #120
      ---         BLOCKEND  LVL=0     ---     ---   
L166 LINKER/LOCATER V5.29.2.0                                                         12/14/2020  10:56:44  PAGE 98



      C0607EH     BLOCK     LVL=0     0004H   ---   set_motor_torque
      000008H     SYMBOL    REG       ---     ---   torq
      C0607EH     LINE      ---       ---     ---   #125
      C0607EH     LINE      ---       ---     ---   #129
      C06080H     LINE      ---       ---     ---   #130
      ---         BLOCKEND  LVL=0     ---     ---   

      C06082H     BLOCK     LVL=0     0014H   ---   set_motor_volt
      000008H     SYMBOL    REG       ---     ---   volt
      C06082H     LINE      ---       ---     ---   #135
      C06082H     LINE      ---       ---     ---   #137
      C06092H     LINE      ---       ---     ---   #139
      C06094H     LINE      ---       ---     ---   #140
      ---         BLOCKEND  LVL=0     ---     ---   

      C06096H     BLOCK     LVL=0     0014H   ---   set_motor_dir
      000048H     SYMBOL    REG       ---     ---   dir
      C06096H     LINE      ---       ---     ---   #145
      C06096H     LINE      ---       ---     ---   #147
      C0609CH     LINE      ---       ---     ---   #148
      C060A0H     LINE      ---       ---     ---   #150
      C060A6H     LINE      ---       ---     ---   #152
      C060A8H     LINE      ---       ---     ---   #153
      ---         BLOCKEND  LVL=0     ---     ---   

      C060AAH     BLOCK     LVL=0     0098H   ---   set_motor_ctrl_enable
      00004DH     SYMBOL    REG       ---     ---   enable
      C060AAH     LINE      ---       ---     ---   #158
      C060AEH     LINE      ---       ---     ---   #160
      C060B4H     LINE      ---       ---     ---   #162
      C060B6H     LINE      ---       ---     ---   #163
      C060B8H     LINE      ---       ---     ---   #164
      C060C0H     LINE      ---       ---     ---   #165
      C060C8H     LINE      ---       ---     ---   #166
      C060D0H     LINE      ---       ---     ---   #168
      C060D4H     LINE      ---       ---     ---   #169
      C060D6H     LINE      ---       ---     ---   #170
      C060DCH     LINE      ---       ---     ---   #172
      C060DEH     LINE      ---       ---     ---   #173
      C060E0H     LINE      ---       ---     ---   #174
      C060E8H     LINE      ---       ---     ---   #175
      C060F0H     LINE      ---       ---     ---   #176
      C060F8H     LINE      ---       ---     ---   #178
      C060FCH     LINE      ---       ---     ---   #179
      C060FEH     LINE      ---       ---     ---   #180
      C06104H     LINE      ---       ---     ---   #182
      C06106H     LINE      ---       ---     ---   #183
      C06108H     LINE      ---       ---     ---   #185
      C06110H     LINE      ---       ---     ---   #186
      C06118H     LINE      ---       ---     ---   #187
      C06120H     LINE      ---       ---     ---   #188
      C06128H     LINE      ---       ---     ---   #189
      C06130H     LINE      ---       ---     ---   #190
      C06138H     LINE      ---       ---     ---   #192
      C0613CH     LINE      ---       ---     ---   #193
      C0613CH     LINE      ---       ---     ---   #195
L166 LINKER/LOCATER V5.29.2.0                                                         12/14/2020  10:56:44  PAGE 99


      C0613EH     LINE      ---       ---     ---   #196
      ---         BLOCKEND  LVL=0     ---     ---   

      C06142H     BLOCK     LVL=0     0004H   ---   save_parameters
      000008H     SYMBOL    REG       ---     ---   para_buf
      00004AH     SYMBOL    REG       ---     ---   len
      C06142H     LINE      ---       ---     ---   #201
      C06142H     LINE      ---       ---     ---   #206
      C06144H     LINE      ---       ---     ---   #207
      ---         BLOCKEND  LVL=0     ---     ---   

      C06146H     BLOCK     LVL=0     0004H   ---   read_parameters
      000008H     SYMBOL    REG       ---     ---   para_buf
      00004AH     SYMBOL    REG       ---     ---   len
      C06146H     LINE      ---       ---     ---   #212
      C06146H     LINE      ---       ---     ---   #217
      C06148H     LINE      ---       ---     ---   #218
      ---         BLOCKEND  LVL=0     ---     ---   

      C0614AH     BLOCK     LVL=0     001AH   ---   set_motor_offset
      000008H     SYMBOL    REG       ---     ---   offset
      C0614AH     LINE      ---       ---     ---   #223
      C0614AH     LINE      ---       ---     ---   #225
      C06152H     LINE      ---       ---     ---   #226
      C06158H     LINE      ---       ---     ---   #227
      C0615CH     LINE      ---       ---     ---   #228
      C06160H     LINE      ---       ---     ---   #230
      C06162H     LINE      ---       ---     ---   #231
      ---         BLOCKEND  LVL=0     ---     ---   

      C06164H     BLOCK     LVL=0     0018H   ---   get_bat_volt
      C06164H     BLOCK     LVL=1     0016H   ---   
      000006H     SYMBOL    REG       ---     ---   l_tmpu16
      ---         BLOCKEND  LVL=1     ---     ---   
      C06164H     LINE      ---       ---     ---   #236
      C06164H     LINE      ---       ---     ---   #237
      C06164H     LINE      ---       ---     ---   #240
      C0616CH     LINE      ---       ---     ---   #243
      C06178H     LINE      ---       ---     ---   #245
      C0617AH     LINE      ---       ---     ---   #246
      ---         BLOCKEND  LVL=0     ---     ---   

      C0617CH     BLOCK     LVL=0     0008H   ---   get_mc_pressure
      C0617CH     BLOCK     LVL=1     0006H   ---   
      000004H     SYMBOL    REG       ---     ---   l_tmpu16
      ---         BLOCKEND  LVL=1     ---     ---   
      C0617CH     LINE      ---       ---     ---   #251
      C0617CH     LINE      ---       ---     ---   #252
      C0617CH     LINE      ---       ---     ---   #256
      C06182H     LINE      ---       ---     ---   #258
      C06182H     LINE      ---       ---     ---   #259
      ---         BLOCKEND  LVL=0     ---     ---   

      C06184H     BLOCK     LVL=0     0008H   ---   get_disp_sensor0
      C06184H     BLOCK     LVL=1     0006H   ---   
      000004H     SYMBOL    REG       ---     ---   l_tmpu16
      ---         BLOCKEND  LVL=1     ---     ---   
L166 LINKER/LOCATER V5.29.2.0                                                         12/14/2020  10:56:44  PAGE 100


      C06184H     LINE      ---       ---     ---   #264
      C06184H     LINE      ---       ---     ---   #265
      C06184H     LINE      ---       ---     ---   #268
      C0618AH     LINE      ---       ---     ---   #270
      C0618AH     LINE      ---       ---     ---   #271
      ---         BLOCKEND  LVL=0     ---     ---   

      C0618CH     BLOCK     LVL=0     000EH   ---   get_ign_volt
      C0618CH     LINE      ---       ---     ---   #276
      C0618CH     LINE      ---       ---     ---   #279
      C06190H     LINE      ---       ---     ---   #280
      C06196H     LINE      ---       ---     ---   #282
      C06198H     LINE      ---       ---     ---   #283
      ---         BLOCKEND  LVL=0     ---     ---   

      C0619AH     BLOCK     LVL=0     000CH   ---   get_brk_pedal_state
      C0619AH     LINE      ---       ---     ---   #288
      C0619AH     LINE      ---       ---     ---   #290
      C0619EH     LINE      ---       ---     ---   #292
      C061A2H     LINE      ---       ---     ---   #293
      C061A2H     LINE      ---       ---     ---   #296
      C061A4H     LINE      ---       ---     ---   #298
      C061A4H     LINE      ---       ---     ---   #299
      ---         BLOCKEND  LVL=0     ---     ---   

      C061A6H     BLOCK     LVL=0     000AH   ---   get_brk_pedal_volt
      C061A6H     LINE      ---       ---     ---   #304
      C061A6H     LINE      ---       ---     ---   #306
      C061AEH     LINE      ---       ---     ---   #307
      ---         BLOCKEND  LVL=0     ---     ---   

      C061B0H     BLOCK     LVL=0     0026H   ---   get_current
      000048H     SYMBOL    REG       ---     ---   i_idx
      C061B2H     BLOCK     LVL=1     0020H   ---   
      00000DH     SYMBOL    REG       ---     ---   l_tmpu16
      ---         BLOCKEND  LVL=1     ---     ---   
      C061B0H     LINE      ---       ---     ---   #312
      C061B2H     LINE      ---       ---     ---   #313
      C061B2H     LINE      ---       ---     ---   #314
      C061B4H     LINE      ---       ---     ---   #316
      C061C2H     LINE      ---       ---     ---   #318
      C061C2H     LINE      ---       ---     ---   #319
      C061CAH     LINE      ---       ---     ---   #320
      C061CCH     LINE      ---       ---     ---   #322
      C061CCH     LINE      ---       ---     ---   #323
      C061CCH     LINE      ---       ---     ---   #324
      C061CCH     LINE      ---       ---     ---   #325
      C061D0H     LINE      ---       ---     ---   #326
      C061D0H     LINE      ---       ---     ---   #327
      C061D0H     LINE      ---       ---     ---   #329
      C061D2H     LINE      ---       ---     ---   #330
      ---         BLOCKEND  LVL=0     ---     ---   

      C061D6H     BLOCK     LVL=0     0008H   ---   get_temp_sensor_pcb
      C061D6H     LINE      ---       ---     ---   #335
      C061D6H     LINE      ---       ---     ---   #337
      C061DCH     LINE      ---       ---     ---   #338
L166 LINKER/LOCATER V5.29.2.0                                                         12/14/2020  10:56:44  PAGE 101


      ---         BLOCKEND  LVL=0     ---     ---   

      C061DEH     BLOCK     LVL=0     0006H   ---   get_temp_sensor_mosfet
      C061DEH     LINE      ---       ---     ---   #343
      C061DEH     LINE      ---       ---     ---   #345
      C061E2H     LINE      ---       ---     ---   #346
      ---         BLOCKEND  LVL=0     ---     ---   
      C05760H     PUBLIC    LABEL     ---     ---   sent_decode
      E0035EH     PUBLIC    VAR       ---     ---   timer_val0
      E00362H     PUBLIC    VAR       ---     ---   g_tick_period
      E00366H     PUBLIC    VAR       ---     ---   timer_val
      E0036AH     PUBLIC    VAR       ---     ---   sent_data_idx
      E0036BH     PUBLIC    VAR       ---     ---   frame_phase
      00AAC0H     PUBLIC    VAR       ---     ---   sent_data

      C05760H     BLOCK     LVL=0     02C4H   ---   sent_decode
      000008H     SYMBOL    REG       ---     ---   timer
      00004AH     SYMBOL    REG       ---     ---   option
      C05768H     BLOCK     LVL=1     02B2H   ---   
      000000H     SYMBOL    AUTO      ---     ---   ret_code
      000002H     SYMBOL    AUTO      ---     ---   tmpu8
      00000EH     SYMBOL    REG       ---     ---   pulsex
      ---         BLOCKEND  LVL=1     ---     ---   
      C05760H     LINE      ---       ---     ---   #77
      C05768H     LINE      ---       ---     ---   #78
      C05768H     LINE      ---       ---     ---   #79
      C0576CH     LINE      ---       ---     ---   #83
      C05772H     LINE      ---       ---     ---   #85
      C05776H     LINE      ---       ---     ---   #86
      C0577AH     LINE      ---       ---     ---   #88
      C05780H     LINE      ---       ---     ---   #89
      C05780H     LINE      ---       ---     ---   #91
      C05784H     LINE      ---       ---     ---   #93
      C05790H     LINE      ---       ---     ---   #95
      C05794H     LINE      ---       ---     ---   #96
      C05798H     LINE      ---       ---     ---   #98
      C0579EH     LINE      ---       ---     ---   #99
      C0579EH     LINE      ---       ---     ---   #101
      C057B6H     LINE      ---       ---     ---   #103
      C057B6H     LINE      ---       ---     ---   #104
      C05812H     LINE      ---       ---     ---   #106
      C05828H     LINE      ---       ---     ---   #107
      C0582EH     LINE      ---       ---     ---   #108
      C05832H     LINE      ---       ---     ---   #109
      C05832H     LINE      ---       ---     ---   #110
      C05836H     LINE      ---       ---     ---   #111
      C05836H     LINE      ---       ---     ---   #112
      C058A0H     LINE      ---       ---     ---   #114
      C058A4H     LINE      ---       ---     ---   #115
      C058A8H     LINE      ---       ---     ---   #116
      C058ACH     LINE      ---       ---     ---   #117
      C058ACH     LINE      ---       ---     ---   #118
      C058C2H     LINE      ---       ---     ---   #119
      C058D8H     LINE      ---       ---     ---   #120
      C058DEH     LINE      ---       ---     ---   #121
      C058E6H     LINE      ---       ---     ---   #122
      C058F0H     LINE      ---       ---     ---   #123
L166 LINKER/LOCATER V5.29.2.0                                                         12/14/2020  10:56:44  PAGE 102


      C058F6H     LINE      ---       ---     ---   #125
      C058FAH     LINE      ---       ---     ---   #126
      C0590AH     LINE      ---       ---     ---   #127
      C0590EH     LINE      ---       ---     ---   #128
      C05914H     LINE      ---       ---     ---   #129
      C05918H     LINE      ---       ---     ---   #131
      C05918H     LINE      ---       ---     ---   #132
      C05982H     LINE      ---       ---     ---   #134
      C05986H     LINE      ---       ---     ---   #135
      C0598AH     LINE      ---       ---     ---   #136
      C0598CH     LINE      ---       ---     ---   #137
      C0598CH     LINE      ---       ---     ---   #141
      C059A2H     LINE      ---       ---     ---   #142
      C059B8H     LINE      ---       ---     ---   #143
      C059BEH     LINE      ---       ---     ---   #144
      C059C6H     LINE      ---       ---     ---   #145
      C059D0H     LINE      ---       ---     ---   #146
      C059D6H     LINE      ---       ---     ---   #147
      C059EAH     LINE      ---       ---     ---   #149
      C059EEH     LINE      ---       ---     ---   #150
      C059F6H     LINE      ---       ---     ---   #152
      C059FCH     LINE      ---       ---     ---   #153
      C05A00H     LINE      ---       ---     ---   #154
      C05A02H     LINE      ---       ---     ---   #155
      C05A02H     LINE      ---       ---     ---   #157
      C05A02H     LINE      ---       ---     ---   #159
      C05A02H     LINE      ---       ---     ---   #160
      C05A06H     LINE      ---       ---     ---   #161
      C05A0AH     LINE      ---       ---     ---   #162
      C05A0EH     LINE      ---       ---     ---   #163
      C05A10H     LINE      ---       ---     ---   #165
      C05A10H     LINE      ---       ---     ---   #166
      C05A14H     LINE      ---       ---     ---   #167
      C05A18H     LINE      ---       ---     ---   #168
      C05A18H     LINE      ---       ---     ---   #169
      C05A18H     LINE      ---       ---     ---   #171
      C05A1AH     LINE      ---       ---     ---   #172
      ---         BLOCKEND  LVL=0     ---     ---   
      C0648EH     PUBLIC    LABEL     ---     ---   PID_Init
      C063AAH     PUBLIC    LABEL     ---     ---   PID_realize

      C063AAH     BLOCK     LVL=0     00E4H   ---   PID_realize
      00000CH     SYMBOL    REG       ---     ---   p
      C063B6H     BLOCK     LVL=1     00CEH   ---   
      000000H     SYMBOL    AUTO      ---     ---   opt_p
      00000EH     SYMBOL    REG       ---     ---   opt_d
      ---         BLOCKEND  LVL=1     ---     ---   
      C063AAH     LINE      ---       ---     ---   #53
      C063B6H     LINE      ---       ---     ---   #54
      C063B6H     LINE      ---       ---     ---   #57
      C063D8H     LINE      ---       ---     ---   #58
      C063F8H     LINE      ---       ---     ---   #60
      C06420H     LINE      ---       ---     ---   #62
      C06420H     LINE      ---       ---     ---   #64
      C0644EH     LINE      ---       ---     ---   #66
      C06460H     LINE      ---       ---     ---   #68
      C06478H     LINE      ---       ---     ---   #69
L166 LINKER/LOCATER V5.29.2.0                                                         12/14/2020  10:56:44  PAGE 103


      C06484H     LINE      ---       ---     ---   #71
      ---         BLOCKEND  LVL=0     ---     ---   

      C0648EH     BLOCK     LVL=0     00AEH   ---   PID_Init
      000008H     SYMBOL    REG       ---     ---   p
      C0648EH     LINE      ---       ---     ---   #73
      C0648EH     LINE      ---       ---     ---   #75
      C06498H     LINE      ---       ---     ---   #76
      C064A0H     LINE      ---       ---     ---   #77
      C064AAH     LINE      ---       ---     ---   #78
      C064B2H     LINE      ---       ---     ---   #79
      C064BCH     LINE      ---       ---     ---   #80
      C064C4H     LINE      ---       ---     ---   #81
      C064CEH     LINE      ---       ---     ---   #82
      C064D6H     LINE      ---       ---     ---   #83
      C064E0H     LINE      ---       ---     ---   #84
      C064E8H     LINE      ---       ---     ---   #85
      C064F2H     LINE      ---       ---     ---   #86
      C064FAH     LINE      ---       ---     ---   #87
      C06504H     LINE      ---       ---     ---   #88
      C0650CH     LINE      ---       ---     ---   #89
      C06516H     LINE      ---       ---     ---   #90
      C0651EH     LINE      ---       ---     ---   #91
      C06528H     LINE      ---       ---     ---   #92
      C06530H     LINE      ---       ---     ---   #93
      C0653AH     LINE      ---       ---     ---   #95
      ---         BLOCKEND  LVL=0     ---     ---   
      C06F56H     PUBLIC    LABEL     ---     ---   MotorCtrlSet
      E003E4H     PUBLIC    VAR       ---     ---   Forward
      E003E6H     PUBLIC    VAR       ---     ---   MotorModeSet
      E003E8H     PUBLIC    VAR       ---     ---   Backward
      E003EAH     PUBLIC    VAR       ---     ---   MotorOffset

      C06F56H     BLOCK     LVL=0     005EH   ---   MotorCtrlSet
      C06F56H     LINE      ---       ---     ---   #8
      C06F56H     LINE      ---       ---     ---   #10
      C06F6CH     LINE      ---       ---     ---   #12
      C06F6CH     LINE      ---       ---     ---   #13
      C06F6CH     LINE      ---       ---     ---   #15
      C06F6CH     LINE      ---       ---     ---   #16
      C06F74H     LINE      ---       ---     ---   #17
      C06F7AH     LINE      ---       ---     ---   #18
      C06F82H     LINE      ---       ---     ---   #19
      C06F8AH     LINE      ---       ---     ---   #20
      C06F8CH     LINE      ---       ---     ---   #22
      C06F8CH     LINE      ---       ---     ---   #23
      C06F94H     LINE      ---       ---     ---   #24
      C06F9AH     LINE      ---       ---     ---   #25
      C06FA2H     LINE      ---       ---     ---   #26
      C06FAAH     LINE      ---       ---     ---   #27
      C06FACH     LINE      ---       ---     ---   #29
      C06FACH     LINE      ---       ---     ---   #30
      C06FB2H     LINE      ---       ---     ---   #31
      C06FB2H     LINE      ---       ---     ---   #32
      C06FB2H     LINE      ---       ---     ---   #33
      ---         BLOCKEND  LVL=0     ---     ---   
      C06AB0H     PUBLIC    LABEL     ---     ---   MotorDrive
L166 LINKER/LOCATER V5.29.2.0                                                         12/14/2020  10:56:44  PAGE 104


      E003ECH     PUBLIC    VAR       ---     ---   Control_mode
      E003EEH     PUBLIC    VAR       ---     ---   TestDUTY
      E003F0H     PUBLIC    VAR       ---     ---   protect_pre

      C06AB0H     BLOCK     LVL=0     00DCH   ---   MotorDrive
      C06AB0H     LINE      ---       ---     ---   #18
      C06AB0H     LINE      ---       ---     ---   #20
      C06AB8H     LINE      ---       ---     ---   #22
      C06AC0H     LINE      ---       ---     ---   #24
      C06AC4H     LINE      ---       ---     ---   #26
      C06ACAH     LINE      ---       ---     ---   #28
      C06AD0H     LINE      ---       ---     ---   #29
      C06AD2H     LINE      ---       ---     ---   #30
      C06AD6H     LINE      ---       ---     ---   #32
      C06ADCH     LINE      ---       ---     ---   #33
      C06ADCH     LINE      ---       ---     ---   #35
      C06AECH     LINE      ---       ---     ---   #37
      C06AECH     LINE      ---       ---     ---   #38
      C06AF4H     LINE      ---       ---     ---   #39
      C06AF8H     LINE      ---       ---     ---   #40
      C06B00H     LINE      ---       ---     ---   #41
      C06B02H     LINE      ---       ---     ---   #42
      C06B02H     LINE      ---       ---     ---   #43
      C06B0AH     LINE      ---       ---     ---   #44
      C06B0EH     LINE      ---       ---     ---   #45
      C06B16H     LINE      ---       ---     ---   #46
      C06B18H     LINE      ---       ---     ---   #47
      C06B18H     LINE      ---       ---     ---   #48
      C06B20H     LINE      ---       ---     ---   #49
      C06B26H     LINE      ---       ---     ---   #50
      C06B2AH     LINE      ---       ---     ---   #51
      C06B2AH     LINE      ---       ---     ---   #52
      C06B2AH     LINE      ---       ---     ---   #53
      C06B2CH     LINE      ---       ---     ---   #56
      C06B34H     LINE      ---       ---     ---   #57
      C06B3AH     LINE      ---       ---     ---   #58
      C06B3EH     LINE      ---       ---     ---   #59
      C06B48H     LINE      ---       ---     ---   #61
      C06B4EH     LINE      ---       ---     ---   #62
      C06B56H     LINE      ---       ---     ---   #63
      C06B56H     LINE      ---       ---     ---   #65
      C06B64H     LINE      ---       ---     ---   #67
      C06B64H     LINE      ---       ---     ---   #68
      C06B6CH     LINE      ---       ---     ---   #69
      C06B70H     LINE      ---       ---     ---   #70
      C06B76H     LINE      ---       ---     ---   #71
      C06B78H     LINE      ---       ---     ---   #72
      C06B78H     LINE      ---       ---     ---   #73
      C06B80H     LINE      ---       ---     ---   #74
      C06B84H     LINE      ---       ---     ---   #75
      C06B8AH     LINE      ---       ---     ---   #76
      C06B8AH     LINE      ---       ---     ---   #77
      C06B8AH     LINE      ---       ---     ---   #78
      C06B8AH     LINE      ---       ---     ---   #79
      ---         BLOCKEND  LVL=0     ---     ---   
      C04016H     PUBLIC    LABEL     ---     ---   DoEboosterCtrl
      E00240H     PUBLIC    VAR       ---     ---   Timer500ms
L166 LINKER/LOCATER V5.29.2.0                                                         12/14/2020  10:56:44  PAGE 105


      E00242H     PUBLIC    VAR       ---     ---   DisplacementInit
      E00244H     PUBLIC    VAR       ---     ---   TimerCycle
      E00246H     PUBLIC    VAR       ---     ---   PressureInit
      E00248H     PUBLIC    VAR       ---     ---   test2
      E0024CH     PUBLIC    VAR       ---     ---   test1
      E00250H     PUBLIC    VAR       ---     ---   Eerror
      E00254H     PUBLIC    VAR       ---     ---   Derror
      E00258H     PUBLIC    VAR       ---     ---   ControlMode
      E0025AH     PUBLIC    VAR       ---     ---   pressure_steady
      E0025CH     PUBLIC    VAR       ---     ---   sum_error
      E00260H     PUBLIC    VAR       ---     ---   PercentError
      E00264H     PUBLIC    VAR       ---     ---   BrkStarVal
      E00268H     PUBLIC    VAR       ---     ---   Voltage
      E0026AH     PUBLIC    VAR       ---     ---   state_pre
      E0026CH     PUBLIC    VAR       ---     ---   stop_state
      E0026EH     PUBLIC    VAR       ---     ---   DataTimer20ms
      E00270H     PUBLIC    VAR       ---     ---   test
      E00274H     PUBLIC    VAR       ---     ---   star_state
      E00276H     PUBLIC    VAR       ---     ---   PressureAVE
      E00278H     PUBLIC    VAR       ---     ---   RodMotor
      E0027CH     PUBLIC    VAR       ---     ---   TimerState2
      E0027EH     PUBLIC    VAR       ---     ---   TimerState1
      E00280H     PUBLIC    VAR       ---     ---   TimerState0
      E00282H     PUBLIC    VAR       ---     ---   ControlP
      E00286H     PUBLIC    VAR       ---     ---   state_time
      E00288H     PUBLIC    VAR       ---     ---   RodActual0
      E0028CH     PUBLIC    VAR       ---     ---   Drv_state
      E0028EH     PUBLIC    VAR       ---     ---   ControlI
      E00292H     PUBLIC    VAR       ---     ---   ControlD
      E00296H     PUBLIC    VAR       ---     ---   Timer1s
      E00298H     PUBLIC    VAR       ---     ---   state
      E0029AH     PUBLIC    VAR       ---     ---   Eerror_pre
      E0029EH     PUBLIC    VAR       ---     ---   MotorState
      E002A0H     PUBLIC    VAR       ---     ---   TryRod0
      E002A4H     PUBLIC    VAR       ---     ---   ControlModePre
      E002A6H     PUBLIC    VAR       ---     ---   RodActual_Pre
      E002AAH     PUBLIC    VAR       ---     ---   DisplacementSenseMM_Pre
      E002AEH     PUBLIC    VAR       ---     ---   LimitState
      E002B0H     PUBLIC    VAR       ---     ---   RodActual
      E002B4H     PUBLIC    VAR       ---     ---   pressure_state
      E002B6H     PUBLIC    VAR       ---     ---   e_error_0
      E002BAH     PUBLIC    VAR       ---     ---   DisplacementSenseMM

      C04016H     BLOCK     LVL=0     04F8H   ---   DoEboosterCtrl
      C04016H     LINE      ---       ---     ---   #83
      C04018H     LINE      ---       ---     ---   #86
      C04022H     LINE      ---       ---     ---   #88
      C0402CH     LINE      ---       ---     ---   #89
      C0402EH     LINE      ---       ---     ---   #92
      C04032H     LINE      ---       ---     ---   #93
      C04032H     LINE      ---       ---     ---   #94
      C04064H     LINE      ---       ---     ---   #98
      C0406EH     LINE      ---       ---     ---   #100
      C04072H     LINE      ---       ---     ---   #102
      C04092H     LINE      ---       ---     ---   #103
      C0409EH     LINE      ---       ---     ---   #105
      C040AAH     LINE      ---       ---     ---   #106
L166 LINKER/LOCATER V5.29.2.0                                                         12/14/2020  10:56:44  PAGE 106


      C040ACH     LINE      ---       ---     ---   #110
      C040B4H     LINE      ---       ---     ---   #111
      C040B4H     LINE      ---       ---     ---   #112
      C040E4H     LINE      ---       ---     ---   #113
      C040EEH     LINE      ---       ---     ---   #115
      C040F6H     LINE      ---       ---     ---   #116
      C040F6H     LINE      ---       ---     ---   #119
      C0410CH     LINE      ---       ---     ---   #121
      C04112H     LINE      ---       ---     ---   #122
      C04114H     LINE      ---       ---     ---   #125
      C04118H     LINE      ---       ---     ---   #126
      C04118H     LINE      ---       ---     ---   #129
      C04122H     LINE      ---       ---     ---   #131
      C04132H     LINE      ---       ---     ---   #133
      C04152H     LINE      ---       ---     ---   #135
      C0416AH     LINE      ---       ---     ---   #137
      C04192H     LINE      ---       ---     ---   #139
      C041A8H     LINE      ---       ---     ---   #140
      C041A8H     LINE      ---       ---     ---   #141
      C041D0H     LINE      ---       ---     ---   #143
      C041EAH     LINE      ---       ---     ---   #145
      C041EAH     LINE      ---       ---     ---   #146
      C041FAH     LINE      ---       ---     ---   #149
      C0421EH     LINE      ---       ---     ---   #154
      C04284H     LINE      ---       ---     ---   #156
      C04290H     LINE      ---       ---     ---   #157
      C04294H     LINE      ---       ---     ---   #158
      C04298H     LINE      ---       ---     ---   #161
      C042FEH     LINE      ---       ---     ---   #162
      C04304H     LINE      ---       ---     ---   #163
      C0430CH     LINE      ---       ---     ---   #165
      C04314H     LINE      ---       ---     ---   #166
      C04314H     LINE      ---       ---     ---   #168
      C04318H     LINE      ---       ---     ---   #169
      C04344H     LINE      ---       ---     ---   #173
      C043AAH     LINE      ---       ---     ---   #175
      C043B6H     LINE      ---       ---     ---   #176
      C043BAH     LINE      ---       ---     ---   #177
      C043BCH     LINE      ---       ---     ---   #180
      C04422H     LINE      ---       ---     ---   #181
      C04428H     LINE      ---       ---     ---   #182
      C0442EH     LINE      ---       ---     ---   #184
      C04436H     LINE      ---       ---     ---   #185
      C04436H     LINE      ---       ---     ---   #187
      C04436H     LINE      ---       ---     ---   #189
      C0445AH     LINE      ---       ---     ---   #192
      C04462H     LINE      ---       ---     ---   #193
      C04468H     LINE      ---       ---     ---   #194
      C04468H     LINE      ---       ---     ---   #195
      C0447CH     LINE      ---       ---     ---   #197
      C04480H     LINE      ---       ---     ---   #198
      C04480H     LINE      ---       ---     ---   #199
      C0448AH     LINE      ---       ---     ---   #201
      C04492H     LINE      ---       ---     ---   #202
      C04492H     LINE      ---       ---     ---   #204
      C04498H     LINE      ---       ---     ---   #207
      C0449CH     LINE      ---       ---     ---   #208
L166 LINKER/LOCATER V5.29.2.0                                                         12/14/2020  10:56:44  PAGE 107


      C044A4H     LINE      ---       ---     ---   #209
      C044ACH     LINE      ---       ---     ---   #210
      C044B4H     LINE      ---       ---     ---   #211
      C044BCH     LINE      ---       ---     ---   #212
      C044C4H     LINE      ---       ---     ---   #213
      C044CAH     LINE      ---       ---     ---   #214
      C044D0H     LINE      ---       ---     ---   #215
      C044D2H     LINE      ---       ---     ---   #219
      C044D6H     LINE      ---       ---     ---   #220
      C044DEH     LINE      ---       ---     ---   #221
      C044E6H     LINE      ---       ---     ---   #222
      C044EEH     LINE      ---       ---     ---   #223
      C044F6H     LINE      ---       ---     ---   #224
      C044FEH     LINE      ---       ---     ---   #225
      C04504H     LINE      ---       ---     ---   #226
      C0450AH     LINE      ---       ---     ---   #227
      C0450AH     LINE      ---       ---     ---   #232
      ---         BLOCKEND  LVL=0     ---     ---   
      C06EC6H     PUBLIC    LABEL     ---     ---   filter_pres_sense
      C06F08H     PUBLIC    LABEL     ---     ---   filter_disp_sense
      E0036CH     PUBLIC    VAR       ---     ---   g_sum_pres_sense
      E00370H     PUBLIC    VAR       ---     ---   g_sum_disp_sense
      E00374H     PUBLIC    VAR       ---     ---   g_pres_sense_val
      E00376H     PUBLIC    VAR       ---     ---   g_disp_sense_val

      C06EC6H     BLOCK     LVL=0     0042H   ---   filter_pres_sense
      000008H     SYMBOL    REG       ---     ---   pres_sense_get
      C06EC6H     BLOCK     LVL=1     0040H   ---   
      000008H     SYMBOL    REG       ---     ---   sum_temp
      ---         BLOCKEND  LVL=1     ---     ---   
      C06EC6H     LINE      ---       ---     ---   #17
      C06EC6H     LINE      ---       ---     ---   #18
      C06EC6H     LINE      ---       ---     ---   #21
      C06ED2H     LINE      ---       ---     ---   #22
      C06EDEH     LINE      ---       ---     ---   #23
      C06EE6H     LINE      ---       ---     ---   #24
      C06F00H     LINE      ---       ---     ---   #25
      C06F06H     LINE      ---       ---     ---   #27
      C06F06H     LINE      ---       ---     ---   #28
      ---         BLOCKEND  LVL=0     ---     ---   

      C06F08H     BLOCK     LVL=0     004EH   ---   filter_disp_sense
      000008H     SYMBOL    REG       ---     ---   disp_sense_get
      C06F08H     BLOCK     LVL=1     004CH   ---   
      000008H     SYMBOL    REG       ---     ---   sum_temp
      ---         BLOCKEND  LVL=1     ---     ---   
      C06F08H     LINE      ---       ---     ---   #31
      C06F08H     LINE      ---       ---     ---   #32
      C06F08H     LINE      ---       ---     ---   #35
      C06F10H     LINE      ---       ---     ---   #36
      C06F20H     LINE      ---       ---     ---   #37
      C06F28H     LINE      ---       ---     ---   #38
      C06F44H     LINE      ---       ---     ---   #39
      C06F4CH     LINE      ---       ---     ---   #41
      C06F54H     LINE      ---       ---     ---   #42
      ---         BLOCKEND  LVL=0     ---     ---   
      C03F78H     PUBLIC    LABEL     ---     ---   do_aut_drv_response
L166 LINKER/LOCATER V5.29.2.0                                                         12/14/2020  10:56:44  PAGE 108


      00AAB8H     PUBLIC    VAR       ---     ---   AUT_DRV_BUFF

      C03F78H     BLOCK     LVL=0     0070H   ---   do_aut_drv_response
      000008H     SYMBOL    REG       ---     ---   buf
      C03F78H     LINE      ---       ---     ---   #57
      C03F78H     LINE      ---       ---     ---   #58
      C03F78H     LINE      ---       ---     ---   #62
      C03F84H     LINE      ---       ---     ---   #63
      C03F92H     LINE      ---       ---     ---   #64
      C03FA0H     LINE      ---       ---     ---   #65
      C03FAEH     LINE      ---       ---     ---   #66
      C03FBCH     LINE      ---       ---     ---   #67
      C03FCAH     LINE      ---       ---     ---   #68
      C03FD8H     LINE      ---       ---     ---   #69
      C03FE6H     LINE      ---       ---     ---   #73
      C03FE6H     LINE      ---       ---     ---   #75
      C03FE6H     LINE      ---       ---     ---   #76
      C03FE6H     LINE      ---       ---     ---   #79
      ---         BLOCKEND  LVL=0     ---     ---   
      C04512H     PUBLIC    LABEL     ---     ---   ?C_FPADD
      C04550H     PUBLIC    LABEL     ---     ---   ?C_FPXSUB
      C0450EH     PUBLIC    LABEL     ---     ---   ?C_FPSUB

      C0450EH     BLOCK     LVL=0     00E8H   ---   ?C_FPSUB
      ---         BLOCKEND  LVL=0     ---     ---   
      C045F6H     PUBLIC    LABEL     ---     ---   ?C_FPMUL

      C045F6H     BLOCK     LVL=0     0094H   ---   ?C_FPMUL
      ---         BLOCKEND  LVL=0     ---     ---   
      C0468AH     PUBLIC    LABEL     ---     ---   ?C_FPDIV

      C0468AH     BLOCK     LVL=0     00C8H   ---   ?C_FPDIV
      ---         BLOCKEND  LVL=0     ---     ---   
      C04752H     PUBLIC    LABEL     ---     ---   ?C_CASTF

      C04752H     BLOCK     LVL=0     005CH   ---   ?C_CASTF
      ---         BLOCKEND  LVL=0     ---     ---   
      C047AEH     PUBLIC    LABEL     ---     ---   ?C_FCAST

      C047AEH     BLOCK     LVL=0     0046H   ---   ?C_FCAST
      ---         BLOCKEND  LVL=0     ---     ---   
      C047F4H     PUBLIC    LABEL     ---     ---   ?C_FPCMP

      C047F4H     BLOCK     LVL=0     0082H   ---   ?C_FPCMP
      ---         BLOCKEND  LVL=0     ---     ---   
      C04876H     PUBLIC    LABEL     ---     ---   ?C_FPNEG

      C04876H     BLOCK     LVL=0     0010H   ---   ?C_FPNEG
      ---         BLOCKEND  LVL=0     ---     ---   
      C04886H     PUBLIC    LABEL     ---     ---   ?C_FPGETOPN
      C048ACH     PUBLIC    LABEL     ---     ---   ?C_FPNANRSL
      C048B4H     PUBLIC    LABEL     ---     ---   ?C_FPINFRSL
      C048D6H     PUBLIC    LABEL     ---     ---   ?C_FPNOERR
      C048CCH     PUBLIC    LABEL     ---     ---   ?C_FPRSLNR
      C048C0H     PUBLIC    LABEL     ---     ---   ?C_FPOPRSL
      C048E4H     PUBLIC    LABEL     ---     ---   ?C_FPZERRSL
      C048E4H     PUBLIC    LABEL     ---     ---   ?C_FPUNFRS
L166 LINKER/LOCATER V5.29.2.0                                                         12/14/2020  10:56:44  PAGE 109



      C04886H     BLOCK     LVL=0     0026H   ---   ?C_FPGETOPN
      ---         BLOCKEND  LVL=0     ---     ---   

      C048ACH     BLOCK     LVL=0     0008H   ---   ?C_FPNANRSL
      ---         BLOCKEND  LVL=0     ---     ---   

      C048B4H     BLOCK     LVL=0     000CH   ---   ?C_FPINFRSL
      ---         BLOCKEND  LVL=0     ---     ---   

      C048C0H     BLOCK     LVL=0     0022H   ---   ?C_FPOPRSL
      ---         BLOCKEND  LVL=0     ---     ---   

      C048E2H     BLOCK     LVL=0     0002H   ---   EXIT
      ---         BLOCKEND  LVL=0     ---     ---   

      C048E4H     BLOCK     LVL=0     0006H   ---   ?C_FPZERRSL
      ---         BLOCKEND  LVL=0     ---     ---   
      000015H     PUBLIC    CONST     ---     ---   ?C_FPPRECISION
      000033H     PUBLIC    CONST     ---     ---   ?C_DPPRECISION
      C048EAH     PUBLIC    LABEL     ---     ---   ?C_LMUL

      C048EAH     BLOCK     LVL=0     0018H   ---   ?C_LMUL
      ---         BLOCKEND  LVL=0     ---     ---   
      C04902H     PUBLIC    LABEL     ---     ---   ?C_ULDIV

      C04902H     BLOCK     LVL=0     0092H   ---   ?C_ULDIV
      ---         BLOCKEND  LVL=0     ---     ---   
      C04994H     PUBLIC    LABEL     ---     ---   ?C_SLDIV

      C04994H     BLOCK     LVL=0     0036H   ---   ?C_SLDIV
      ---         BLOCKEND  LVL=0     ---     ---   
      C049CAH     PUBLIC    LABEL     ---     ---   ?C_BCPYNF

      C049CAH     BLOCK     LVL=0     000EH   ---   ?C_BCPYNF
      ---         BLOCKEND  LVL=0     ---     ---   
      C000E6H     PUBLIC    LABEL     ---     ---   memcpy

      C000E6H     BLOCK     LVL=0     0016H   ---   memcpy
      ---         BLOCKEND  LVL=0     ---     ---   
      C03FE8H     PUBLIC    LABEL     ---     ---   fmemcpy

      C03FE8H     BLOCK     LVL=0     0016H   ---   fmemcpy
      ---         BLOCKEND  LVL=0     ---     ---   
      C10604H     PUBLIC    VAR       ---     ---   ?C_ENDINIT



FUNCTION REGISTER MASKS


FUNCTION . . . . . . . . . . . REG MASK
=======================================


Program Size: data=4297(near=4297) const=5653(near=3909) code=25032
L166 RUN COMPLETE.  0 WARNING(S),  0 ERROR(S)
